
opti_gcc:     format de fichier elf64-x86-64


Déassemblage de la section .interp :

00000000000002a8 <.interp>:
 2a8:	2f                   	(bad)  
 2a9:	6c                   	insb   (%dx),%es:(%rdi)
 2aa:	69 62 36 34 2f 6c 64 	imul   $0x646c2f34,0x36(%rdx),%esp
 2b1:	2d 6c 69 6e 75       	sub    $0x756e696c,%eax
 2b6:	78 2d                	js     2e5 <__abi_tag-0x3>
 2b8:	78 38                	js     2f2 <__abi_tag+0xa>
 2ba:	36 2d 36 34 2e 73    	ss sub $0x732e3436,%eax
 2c0:	6f                   	outsl  %ds:(%rsi),(%dx)
 2c1:	2e 32 00             	xor    %cs:(%rax),%al

Déassemblage de la section .note.gnu.build-id :

00000000000002c4 <.note.gnu.build-id>:
 2c4:	04 00                	add    $0x0,%al
 2c6:	00 00                	add    %al,(%rax)
 2c8:	14 00                	adc    $0x0,%al
 2ca:	00 00                	add    %al,(%rax)
 2cc:	03 00                	add    (%rax),%eax
 2ce:	00 00                	add    %al,(%rax)
 2d0:	47                   	rex.RXB
 2d1:	4e 55                	rex.WRX push %rbp
 2d3:	00 5b e9             	add    %bl,-0x17(%rbx)
 2d6:	34 01                	xor    $0x1,%al
 2d8:	ac                   	lods   %ds:(%rsi),%al
 2d9:	e9 35 6b 0c 26       	jmpq   260c6e13 <_end+0x260c1dbb>
 2de:	41 58                	pop    %r8
 2e0:	d6                   	(bad)  
 2e1:	df 70 11             	fbstp  0x11(%rax)
 2e4:	7e 77                	jle    35d <__abi_tag+0x75>
 2e6:	8c 0e                	mov    %cs,(%rsi)

Déassemblage de la section .note.ABI-tag :

00000000000002e8 <__abi_tag>:
 2e8:	04 00                	add    $0x0,%al
 2ea:	00 00                	add    %al,(%rax)
 2ec:	10 00                	adc    %al,(%rax)
 2ee:	00 00                	add    %al,(%rax)
 2f0:	01 00                	add    %eax,(%rax)
 2f2:	00 00                	add    %al,(%rax)
 2f4:	47                   	rex.RXB
 2f5:	4e 55                	rex.WRX push %rbp
 2f7:	00 00                	add    %al,(%rax)
 2f9:	00 00                	add    %al,(%rax)
 2fb:	00 03                	add    %al,(%rbx)
 2fd:	00 00                	add    %al,(%rax)
 2ff:	00 02                	add    %al,(%rdx)
 301:	00 00                	add    %al,(%rax)
 303:	00 00                	add    %al,(%rax)
 305:	00 00                	add    %al,(%rax)
	...

Déassemblage de la section .gnu.hash :

0000000000000308 <.gnu.hash>:
 308:	01 00                	add    %eax,(%rax)
 30a:	00 00                	add    %al,(%rax)
 30c:	01 00                	add    %eax,(%rax)
 30e:	00 00                	add    %al,(%rax)
 310:	01 00                	add    %eax,(%rax)
	...

Déassemblage de la section .dynsym :

0000000000000328 <.dynsym>:
	...
 340:	44 00 00             	add    %r8b,(%rax)
 343:	00 12                	add    %dl,(%rdx)
	...
 355:	00 00                	add    %al,(%rax)
 357:	00 6a 00             	add    %ch,0x0(%rdx)
 35a:	00 00                	add    %al,(%rax)
 35c:	20 00                	and    %al,(%rax)
	...
 36e:	00 00                	add    %al,(%rax)
 370:	0e                   	(bad)  
 371:	00 00                	add    %al,(%rax)
 373:	00 12                	add    %dl,(%rdx)
	...
 385:	00 00                	add    %al,(%rax)
 387:	00 32                	add    %dh,(%rdx)
 389:	00 00                	add    %al,(%rax)
 38b:	00 12                	add    %dl,(%rdx)
	...
 39d:	00 00                	add    %al,(%rax)
 39f:	00 06                	add    %al,(%rsi)
 3a1:	00 00                	add    %al,(%rax)
 3a3:	00 12                	add    %dl,(%rdx)
	...
 3b5:	00 00                	add    %al,(%rax)
 3b7:	00 86 00 00 00 20    	add    %al,0x20000000(%rsi)
	...
 3cd:	00 00                	add    %al,(%rax)
 3cf:	00 01                	add    %al,(%rcx)
 3d1:	00 00                	add    %al,(%rax)
 3d3:	00 12                	add    %dl,(%rdx)
	...
 3e5:	00 00                	add    %al,(%rax)
 3e7:	00 95 00 00 00 20    	add    %dl,0x20000000(%rbp)
	...
 3fd:	00 00                	add    %al,(%rax)
 3ff:	00 15 00 00 00 12    	add    %dl,0x12000000(%rip)        # 12000405 <_end+0x11ffb3ad>
	...
 415:	00 00                	add    %al,(%rax)
 417:	00 23                	add    %ah,(%rbx)
 419:	00 00                	add    %al,(%rax)
 41b:	00 22                	add    %ah,(%rdx)
	...

Déassemblage de la section .dynstr :

0000000000000430 <.dynstr>:
 430:	00 65 78             	add    %ah,0x78(%rbp)
 433:	69 74 00 73 74 72 74 	imul   $0x6f747274,0x73(%rax,%rax,1),%esi
 43a:	6f 
 43b:	6c                   	insb   (%dx),%es:(%rdi)
 43c:	6c                   	insb   (%dx),%es:(%rdi)
 43d:	00 70 72             	add    %dh,0x72(%rax)
 440:	69 6e 74 66 00 61 6c 	imul   $0x6c610066,0x74(%rsi),%ebp
 447:	69 67 6e 65 64 5f 61 	imul   $0x615f6465,0x6e(%rdi),%esp
 44e:	6c                   	insb   (%dx),%es:(%rdi)
 44f:	6c                   	insb   (%dx),%es:(%rdi)
 450:	6f                   	outsl  %ds:(%rsi),(%dx)
 451:	63 00                	movsxd (%rax),%eax
 453:	5f                   	pop    %rdi
 454:	5f                   	pop    %rdi
 455:	63 78 61             	movsxd 0x61(%rax),%edi
 458:	5f                   	pop    %rdi
 459:	66 69 6e 61 6c 69    	imul   $0x696c,0x61(%rsi),%bp
 45f:	7a 65                	jp     4c6 <__abi_tag+0x1de>
 461:	00 5f 5f             	add    %bl,0x5f(%rdi)
 464:	6c                   	insb   (%dx),%es:(%rdi)
 465:	69 62 63 5f 73 74 61 	imul   $0x6174735f,0x63(%rdx),%esp
 46c:	72 74                	jb     4e2 <__abi_tag+0x1fa>
 46e:	5f                   	pop    %rdi
 46f:	6d                   	insl   (%dx),%es:(%rdi)
 470:	61                   	(bad)  
 471:	69 6e 00 66 72 65 65 	imul   $0x65657266,0x0(%rsi),%ebp
 478:	00 6c 69 62          	add    %ch,0x62(%rcx,%rbp,2)
 47c:	63 2e                	movsxd (%rsi),%ebp
 47e:	73 6f                	jae    4ef <__abi_tag+0x207>
 480:	2e 36 00 47 4c       	cs add %al,%ss:0x4c(%rdi)
 485:	49                   	rex.WB
 486:	42                   	rex.X
 487:	43 5f                	rex.XB pop %r15
 489:	32 2e                	xor    (%rsi),%ch
 48b:	31 36                	xor    %esi,(%rsi)
 48d:	00 47 4c             	add    %al,0x4c(%rdi)
 490:	49                   	rex.WB
 491:	42                   	rex.X
 492:	43 5f                	rex.XB pop %r15
 494:	32 2e                	xor    (%rsi),%ch
 496:	32 2e                	xor    (%rsi),%ch
 498:	35 00 5f 49 54       	xor    $0x54495f00,%eax
 49d:	4d 5f                	rex.WRB pop %r15
 49f:	64 65 72 65          	fs gs jb 508 <__abi_tag+0x220>
 4a3:	67 69 73 74 65 72 54 	imul   $0x4d547265,0x74(%ebx),%esi
 4aa:	4d 
 4ab:	43 6c                	rex.XB insb (%dx),%es:(%rdi)
 4ad:	6f                   	outsl  %ds:(%rsi),(%dx)
 4ae:	6e                   	outsb  %ds:(%rsi),(%dx)
 4af:	65 54                	gs push %rsp
 4b1:	61                   	(bad)  
 4b2:	62                   	(bad)  
 4b3:	6c                   	insb   (%dx),%es:(%rdi)
 4b4:	65 00 5f 5f          	add    %bl,%gs:0x5f(%rdi)
 4b8:	67 6d                	insl   (%dx),%es:(%edi)
 4ba:	6f                   	outsl  %ds:(%rsi),(%dx)
 4bb:	6e                   	outsb  %ds:(%rsi),(%dx)
 4bc:	5f                   	pop    %rdi
 4bd:	73 74                	jae    533 <__abi_tag+0x24b>
 4bf:	61                   	(bad)  
 4c0:	72 74                	jb     536 <__abi_tag+0x24e>
 4c2:	5f                   	pop    %rdi
 4c3:	5f                   	pop    %rdi
 4c4:	00 5f 49             	add    %bl,0x49(%rdi)
 4c7:	54                   	push   %rsp
 4c8:	4d 5f                	rex.WRB pop %r15
 4ca:	72 65                	jb     531 <__abi_tag+0x249>
 4cc:	67 69 73 74 65 72 54 	imul   $0x4d547265,0x74(%ebx),%esi
 4d3:	4d 
 4d4:	43 6c                	rex.XB insb (%dx),%es:(%rdi)
 4d6:	6f                   	outsl  %ds:(%rsi),(%dx)
 4d7:	6e                   	outsb  %ds:(%rsi),(%dx)
 4d8:	65 54                	gs push %rsp
 4da:	61                   	(bad)  
 4db:	62                   	.byte 0x62
 4dc:	6c                   	insb   (%dx),%es:(%rdi)
 4dd:	65                   	gs
	...

Déassemblage de la section .gnu.version :

00000000000004e0 <.gnu.version>:
 4e0:	00 00                	add    %al,(%rax)
 4e2:	02 00                	add    (%rax),%al
 4e4:	00 00                	add    %al,(%rax)
 4e6:	02 00                	add    (%rax),%al
 4e8:	02 00                	add    (%rax),%al
 4ea:	02 00                	add    (%rax),%al
 4ec:	00 00                	add    %al,(%rax)
 4ee:	02 00                	add    (%rax),%al
 4f0:	00 00                	add    %al,(%rax)
 4f2:	03 00                	add    (%rax),%eax
 4f4:	02 00                	add    (%rax),%al

Déassemblage de la section .gnu.version_r :

00000000000004f8 <.gnu.version_r>:
 4f8:	01 00                	add    %eax,(%rax)
 4fa:	02 00                	add    (%rax),%al
 4fc:	49 00 00             	rex.WB add %al,(%r8)
 4ff:	00 10                	add    %dl,(%rax)
 501:	00 00                	add    %al,(%rax)
 503:	00 00                	add    %al,(%rax)
 505:	00 00                	add    %al,(%rax)
 507:	00 96 91 96 06 00    	add    %dl,0x69691(%rsi)
 50d:	00 03                	add    %al,(%rbx)
 50f:	00 53 00             	add    %dl,0x0(%rbx)
 512:	00 00                	add    %al,(%rax)
 514:	10 00                	adc    %al,(%rax)
 516:	00 00                	add    %al,(%rax)
 518:	75 1a                	jne    534 <__abi_tag+0x24c>
 51a:	69 09 00 00 02 00    	imul   $0x20000,(%rcx),%ecx
 520:	5e                   	pop    %rsi
 521:	00 00                	add    %al,(%rax)
 523:	00 00                	add    %al,(%rax)
 525:	00 00                	add    %al,(%rax)
	...

Déassemblage de la section .rela.dyn :

0000000000000528 <.rela.dyn>:
 528:	e8 4d 00 00 00       	callq  57a <__abi_tag+0x292>
 52d:	00 00                	add    %al,(%rax)
 52f:	00 08                	add    %cl,(%rax)
 531:	00 00                	add    %al,(%rax)
 533:	00 00                	add    %al,(%rax)
 535:	00 00                	add    %al,(%rax)
 537:	00 20                	add    %ah,(%rax)
 539:	15 00 00 00 00       	adc    $0x0,%eax
 53e:	00 00                	add    %al,(%rax)
 540:	f0 4d 00 00          	lock rex.WRB add %r8b,(%r8)
 544:	00 00                	add    %al,(%rax)
 546:	00 00                	add    %al,(%rax)
 548:	08 00                	or     %al,(%rax)
 54a:	00 00                	add    %al,(%rax)
 54c:	00 00                	add    %al,(%rax)
 54e:	00 00                	add    %al,(%rax)
 550:	d0 14 00             	rclb   (%rax,%rax,1)
 553:	00 00                	add    %al,(%rax)
 555:	00 00                	add    %al,(%rax)
 557:	00 48 50             	add    %cl,0x50(%rax)
 55a:	00 00                	add    %al,(%rax)
 55c:	00 00                	add    %al,(%rax)
 55e:	00 00                	add    %al,(%rax)
 560:	08 00                	or     %al,(%rax)
 562:	00 00                	add    %al,(%rax)
 564:	00 00                	add    %al,(%rax)
 566:	00 00                	add    %al,(%rax)
 568:	48 50                	rex.W push %rax
 56a:	00 00                	add    %al,(%rax)
 56c:	00 00                	add    %al,(%rax)
 56e:	00 00                	add    %al,(%rax)
 570:	d8 4f 00             	fmuls  0x0(%rdi)
 573:	00 00                	add    %al,(%rax)
 575:	00 00                	add    %al,(%rax)
 577:	00 06                	add    %al,(%rsi)
 579:	00 00                	add    %al,(%rax)
 57b:	00 02                	add    %al,(%rdx)
	...
 585:	00 00                	add    %al,(%rax)
 587:	00 e0                	add    %ah,%al
 589:	4f 00 00             	rex.WRXB add %r8b,(%r8)
 58c:	00 00                	add    %al,(%rax)
 58e:	00 00                	add    %al,(%rax)
 590:	06                   	(bad)  
 591:	00 00                	add    %al,(%rax)
 593:	00 04 00             	add    %al,(%rax,%rax,1)
	...
 59e:	00 00                	add    %al,(%rax)
 5a0:	e8 4f 00 00 00       	callq  5f4 <__abi_tag+0x30c>
 5a5:	00 00                	add    %al,(%rax)
 5a7:	00 06                	add    %al,(%rsi)
 5a9:	00 00                	add    %al,(%rax)
 5ab:	00 06                	add    %al,(%rsi)
	...
 5b5:	00 00                	add    %al,(%rax)
 5b7:	00 f0                	add    %dh,%al
 5b9:	4f 00 00             	rex.WRXB add %r8b,(%r8)
 5bc:	00 00                	add    %al,(%rax)
 5be:	00 00                	add    %al,(%rax)
 5c0:	06                   	(bad)  
 5c1:	00 00                	add    %al,(%rax)
 5c3:	00 08                	add    %cl,(%rax)
	...
 5cd:	00 00                	add    %al,(%rax)
 5cf:	00 f8                	add    %bh,%al
 5d1:	4f 00 00             	rex.WRXB add %r8b,(%r8)
 5d4:	00 00                	add    %al,(%rax)
 5d6:	00 00                	add    %al,(%rax)
 5d8:	06                   	(bad)  
 5d9:	00 00                	add    %al,(%rax)
 5db:	00 0a                	add    %cl,(%rdx)
	...

Déassemblage de la section .rela.plt :

00000000000005e8 <.rela.plt>:
 5e8:	18 50 00             	sbb    %dl,0x0(%rax)
 5eb:	00 00                	add    %al,(%rax)
 5ed:	00 00                	add    %al,(%rax)
 5ef:	00 07                	add    %al,(%rdi)
 5f1:	00 00                	add    %al,(%rax)
 5f3:	00 01                	add    %al,(%rcx)
	...
 5fd:	00 00                	add    %al,(%rax)
 5ff:	00 20                	add    %ah,(%rax)
 601:	50                   	push   %rax
 602:	00 00                	add    %al,(%rax)
 604:	00 00                	add    %al,(%rax)
 606:	00 00                	add    %al,(%rax)
 608:	07                   	(bad)  
 609:	00 00                	add    %al,(%rax)
 60b:	00 03                	add    %al,(%rbx)
	...
 615:	00 00                	add    %al,(%rax)
 617:	00 28                	add    %ch,(%rax)
 619:	50                   	push   %rax
 61a:	00 00                	add    %al,(%rax)
 61c:	00 00                	add    %al,(%rax)
 61e:	00 00                	add    %al,(%rax)
 620:	07                   	(bad)  
 621:	00 00                	add    %al,(%rax)
 623:	00 05 00 00 00 00    	add    %al,0x0(%rip)        # 629 <__abi_tag+0x341>
 629:	00 00                	add    %al,(%rax)
 62b:	00 00                	add    %al,(%rax)
 62d:	00 00                	add    %al,(%rax)
 62f:	00 30                	add    %dh,(%rax)
 631:	50                   	push   %rax
 632:	00 00                	add    %al,(%rax)
 634:	00 00                	add    %al,(%rax)
 636:	00 00                	add    %al,(%rax)
 638:	07                   	(bad)  
 639:	00 00                	add    %al,(%rax)
 63b:	00 07                	add    %al,(%rdi)
	...
 645:	00 00                	add    %al,(%rax)
 647:	00 38                	add    %bh,(%rax)
 649:	50                   	push   %rax
 64a:	00 00                	add    %al,(%rax)
 64c:	00 00                	add    %al,(%rax)
 64e:	00 00                	add    %al,(%rax)
 650:	07                   	(bad)  
 651:	00 00                	add    %al,(%rax)
 653:	00 09                	add    %cl,(%rcx)
	...

Déassemblage de la section .init :

0000000000001000 <_init>:
    1000:	f3 0f 1e fa          	endbr64 
    1004:	48 83 ec 08          	sub    $0x8,%rsp
    1008:	48 8b 05 d9 3f 00 00 	mov    0x3fd9(%rip),%rax        # 4fe8 <__gmon_start__>
    100f:	48 85 c0             	test   %rax,%rax
    1012:	74 02                	je     1016 <_init+0x16>
    1014:	ff d0                	callq  *%rax
    1016:	48 83 c4 08          	add    $0x8,%rsp
    101a:	c3                   	retq   

Déassemblage de la section .plt :

0000000000001020 <.plt>:
    1020:	ff 35 e2 3f 00 00    	pushq  0x3fe2(%rip)        # 5008 <_GLOBAL_OFFSET_TABLE_+0x8>
    1026:	ff 25 e4 3f 00 00    	jmpq   *0x3fe4(%rip)        # 5010 <_GLOBAL_OFFSET_TABLE_+0x10>
    102c:	0f 1f 40 00          	nopl   0x0(%rax)

0000000000001030 <free@plt>:
    1030:	ff 25 e2 3f 00 00    	jmpq   *0x3fe2(%rip)        # 5018 <free@GLIBC_2.2.5>
    1036:	68 00 00 00 00       	pushq  $0x0
    103b:	e9 e0 ff ff ff       	jmpq   1020 <.plt>

0000000000001040 <printf@plt>:
    1040:	ff 25 da 3f 00 00    	jmpq   *0x3fda(%rip)        # 5020 <printf@GLIBC_2.2.5>
    1046:	68 01 00 00 00       	pushq  $0x1
    104b:	e9 d0 ff ff ff       	jmpq   1020 <.plt>

0000000000001050 <strtoll@plt>:
    1050:	ff 25 d2 3f 00 00    	jmpq   *0x3fd2(%rip)        # 5028 <strtoll@GLIBC_2.2.5>
    1056:	68 02 00 00 00       	pushq  $0x2
    105b:	e9 c0 ff ff ff       	jmpq   1020 <.plt>

0000000000001060 <exit@plt>:
    1060:	ff 25 ca 3f 00 00    	jmpq   *0x3fca(%rip)        # 5030 <exit@GLIBC_2.2.5>
    1066:	68 03 00 00 00       	pushq  $0x3
    106b:	e9 b0 ff ff ff       	jmpq   1020 <.plt>

0000000000001070 <aligned_alloc@plt>:
    1070:	ff 25 c2 3f 00 00    	jmpq   *0x3fc2(%rip)        # 5038 <aligned_alloc@GLIBC_2.16>
    1076:	68 04 00 00 00       	pushq  $0x4
    107b:	e9 a0 ff ff ff       	jmpq   1020 <.plt>

Déassemblage de la section .text :

0000000000001080 <main>:
    1080:	41 55                	push   %r13
    1082:	41 54                	push   %r12
    1084:	55                   	push   %rbp
    1085:	48 83 ec 50          	sub    $0x50,%rsp
    1089:	e8 a2 04 00 00       	callq  1530 <parse_args>
    108e:	bf 40 00 00 00       	mov    $0x40,%edi
    1093:	48 8d 2c c5 00 00 00 	lea    0x0(,%rax,8),%rbp
    109a:	00 
    109b:	49 89 c5             	mov    %rax,%r13
    109e:	48 89 ee             	mov    %rbp,%rsi
    10a1:	e8 ca ff ff ff       	callq  1070 <aligned_alloc@plt>
    10a6:	48 89 ee             	mov    %rbp,%rsi
    10a9:	bf 40 00 00 00       	mov    $0x40,%edi
    10ae:	49 89 c4             	mov    %rax,%r12
    10b1:	e8 ba ff ff ff       	callq  1070 <aligned_alloc@plt>
    10b6:	48 89 c5             	mov    %rax,%rbp
    10b9:	4d 85 ed             	test   %r13,%r13
    10bc:	0f 84 35 03 00 00    	je     13f7 <main+0x377>
    10c2:	49 83 fd 01          	cmp    $0x1,%r13
    10c6:	0f 84 48 03 00 00    	je     1414 <main+0x394>
    10cc:	4c 89 ea             	mov    %r13,%rdx
    10cf:	66 0f 28 25 79 1f 00 	movapd 0x1f79(%rip),%xmm4        # 3050 <_IO_stdin_used+0x50>
    10d6:	00 
    10d7:	66 0f 28 2d 81 1f 00 	movapd 0x1f81(%rip),%xmm5        # 3060 <_IO_stdin_used+0x60>
    10de:	00 
    10df:	31 c0                	xor    %eax,%eax
    10e1:	48 d1 ea             	shr    %rdx
    10e4:	48 c1 e2 04          	shl    $0x4,%rdx
    10e8:	0f 1f 84 00 00 00 00 	nopl   0x0(%rax,%rax,1)
    10ef:	00 
    10f0:	41 0f 29 24 04       	movaps %xmm4,(%r12,%rax,1)
    10f5:	0f 29 6c 05 00       	movaps %xmm5,0x0(%rbp,%rax,1)
    10fa:	48 83 c0 10          	add    $0x10,%rax
    10fe:	48 39 d0             	cmp    %rdx,%rax
    1101:	75 ed                	jne    10f0 <main+0x70>
    1103:	4c 89 e8             	mov    %r13,%rax
    1106:	48 83 e0 fe          	and    $0xfffffffffffffffe,%rax
    110a:	41 f6 c5 01          	test   $0x1,%r13b
    110e:	74 21                	je     1131 <main+0xb1>
    1110:	48 8b 0d 59 1f 00 00 	mov    0x1f59(%rip),%rcx        # 3070 <_IO_stdin_used+0x70>
    1117:	49 89 0c c4          	mov    %rcx,(%r12,%rax,8)
    111b:	48 8b 0d 56 1f 00 00 	mov    0x1f56(%rip),%rcx        # 3078 <_IO_stdin_used+0x78>
    1122:	48 89 4c c5 00       	mov    %rcx,0x0(%rbp,%rax,8)
    1127:	49 83 fd 01          	cmp    $0x1,%r13
    112b:	0f 84 b7 02 00 00    	je     13e8 <main+0x368>
    1131:	4c 89 ea             	mov    %r13,%rdx
    1134:	66 0f ef d2          	pxor   %xmm2,%xmm2
    1138:	31 c0                	xor    %eax,%eax
    113a:	48 d1 ea             	shr    %rdx
    113d:	66 0f 28 da          	movapd %xmm2,%xmm3
    1141:	48 c1 e2 04          	shl    $0x4,%rdx
    1145:	0f 1f 00             	nopl   (%rax)
    1148:	66 41 0f 28 0c 04    	movapd (%r12,%rax,1),%xmm1
    114e:	66 0f 59 4c 05 00    	mulpd  0x0(%rbp,%rax,1),%xmm1
    1154:	48 83 c0 10          	add    $0x10,%rax
    1158:	f2 0f 58 d9          	addsd  %xmm1,%xmm3
    115c:	66 0f 15 c9          	unpckhpd %xmm1,%xmm1
    1160:	f2 0f 58 d9          	addsd  %xmm1,%xmm3
    1164:	48 39 c2             	cmp    %rax,%rdx
    1167:	75 df                	jne    1148 <main+0xc8>
    1169:	4c 89 e8             	mov    %r13,%rax
    116c:	48 83 e0 fe          	and    $0xfffffffffffffffe,%rax
    1170:	41 f6 c5 01          	test   $0x1,%r13b
    1174:	74 10                	je     1186 <main+0x106>
    1176:	f2 0f 10 44 c5 00    	movsd  0x0(%rbp,%rax,8),%xmm0
    117c:	f2 41 0f 59 04 c4    	mulsd  (%r12,%rax,8),%xmm0
    1182:	f2 0f 58 d8          	addsd  %xmm0,%xmm3
    1186:	48 89 ee             	mov    %rbp,%rsi
    1189:	4c 89 e7             	mov    %r12,%rdi
    118c:	4c 89 ea             	mov    %r13,%rdx
    118f:	0f 29 6c 24 40       	movaps %xmm5,0x40(%rsp)
    1194:	0f 29 64 24 30       	movaps %xmm4,0x30(%rsp)
    1199:	f2 0f 11 54 24 28    	movsd  %xmm2,0x28(%rsp)
    119f:	f2 0f 11 5c 24 20    	movsd  %xmm3,0x20(%rsp)
    11a5:	e8 26 04 00 00       	callq  15d0 <dotprod_2x>
    11aa:	4c 89 ea             	mov    %r13,%rdx
    11ad:	f2 0f 11 44 24 18    	movsd  %xmm0,0x18(%rsp)
    11b3:	e8 f8 05 00 00       	callq  17b0 <dotprod_4x>
    11b8:	4c 89 ea             	mov    %r13,%rdx
    11bb:	f2 0f 11 44 24 10    	movsd  %xmm0,0x10(%rsp)
    11c1:	e8 3a 08 00 00       	callq  1a00 <dotprod_8x>
    11c6:	4c 89 ea             	mov    %r13,%rdx
    11c9:	f2 0f 11 44 24 08    	movsd  %xmm0,0x8(%rsp)
    11cf:	e8 9c 0d 00 00       	callq  1f70 <dotprod_16x>
    11d4:	f2 0f 10 5c 24 20    	movsd  0x20(%rsp),%xmm3
    11da:	b8 01 00 00 00       	mov    $0x1,%eax
    11df:	48 8d 3d 1e 1e 00 00 	lea    0x1e1e(%rip),%rdi        # 3004 <_IO_stdin_used+0x4>
    11e6:	f2 0f 11 04 24       	movsd  %xmm0,(%rsp)
    11eb:	66 0f 28 c3          	movapd %xmm3,%xmm0
    11ef:	e8 4c fe ff ff       	callq  1040 <printf@plt>
    11f4:	f2 44 0f 10 44 24 18 	movsd  0x18(%rsp),%xmm8
    11fb:	b8 01 00 00 00       	mov    $0x1,%eax
    1200:	48 8d 3d 08 1e 00 00 	lea    0x1e08(%rip),%rdi        # 300f <_IO_stdin_used+0xf>
    1207:	66 41 0f 28 c0       	movapd %xmm8,%xmm0
    120c:	e8 2f fe ff ff       	callq  1040 <printf@plt>
    1211:	f2 0f 10 7c 24 10    	movsd  0x10(%rsp),%xmm7
    1217:	b8 01 00 00 00       	mov    $0x1,%eax
    121c:	48 8d 3d fa 1d 00 00 	lea    0x1dfa(%rip),%rdi        # 301d <_IO_stdin_used+0x1d>
    1223:	66 0f 28 c7          	movapd %xmm7,%xmm0
    1227:	e8 14 fe ff ff       	callq  1040 <printf@plt>
    122c:	f2 0f 10 74 24 08    	movsd  0x8(%rsp),%xmm6
    1232:	b8 01 00 00 00       	mov    $0x1,%eax
    1237:	48 8d 3d ed 1d 00 00 	lea    0x1ded(%rip),%rdi        # 302b <_IO_stdin_used+0x2b>
    123e:	66 0f 28 c6          	movapd %xmm6,%xmm0
    1242:	e8 f9 fd ff ff       	callq  1040 <printf@plt>
    1247:	f2 0f 10 0c 24       	movsd  (%rsp),%xmm1
    124c:	b8 01 00 00 00       	mov    $0x1,%eax
    1251:	48 8d 3d e1 1d 00 00 	lea    0x1de1(%rip),%rdi        # 3039 <_IO_stdin_used+0x39>
    1258:	66 0f 28 c1          	movapd %xmm1,%xmm0
    125c:	e8 df fd ff ff       	callq  1040 <printf@plt>
    1261:	4c 89 e7             	mov    %r12,%rdi
    1264:	e8 c7 fd ff ff       	callq  1030 <free@plt>
    1269:	48 89 ef             	mov    %rbp,%rdi
    126c:	e8 bf fd ff ff       	callq  1030 <free@plt>
    1271:	be 20 03 00 00       	mov    $0x320,%esi
    1276:	bf 40 00 00 00       	mov    $0x40,%edi
    127b:	e8 f0 fd ff ff       	callq  1070 <aligned_alloc@plt>
    1280:	be 20 03 00 00       	mov    $0x320,%esi
    1285:	bf 40 00 00 00       	mov    $0x40,%edi
    128a:	49 89 c4             	mov    %rax,%r12
    128d:	e8 de fd ff ff       	callq  1070 <aligned_alloc@plt>
    1292:	66 0f 28 6c 24 40    	movapd 0x40(%rsp),%xmm5
    1298:	66 0f 28 64 24 30    	movapd 0x30(%rsp),%xmm4
    129e:	f2 0f 10 54 24 28    	movsd  0x28(%rsp),%xmm2
    12a4:	48 89 c5             	mov    %rax,%rbp
    12a7:	31 c0                	xor    %eax,%eax
    12a9:	0f 1f 80 00 00 00 00 	nopl   0x0(%rax)
    12b0:	41 0f 29 24 04       	movaps %xmm4,(%r12,%rax,1)
    12b5:	0f 29 6c 05 00       	movaps %xmm5,0x0(%rbp,%rax,1)
    12ba:	48 83 c0 10          	add    $0x10,%rax
    12be:	48 3d 20 03 00 00    	cmp    $0x320,%rax
    12c4:	75 ea                	jne    12b0 <main+0x230>
    12c6:	31 c0                	xor    %eax,%eax
    12c8:	66 0f 28 ca          	movapd %xmm2,%xmm1
    12cc:	0f 1f 40 00          	nopl   0x0(%rax)
    12d0:	66 0f 28 44 05 00    	movapd 0x0(%rbp,%rax,1),%xmm0
    12d6:	66 41 0f 59 04 04    	mulpd  (%r12,%rax,1),%xmm0
    12dc:	48 83 c0 10          	add    $0x10,%rax
    12e0:	f2 0f 58 c8          	addsd  %xmm0,%xmm1
    12e4:	66 0f 15 c0          	unpckhpd %xmm0,%xmm0
    12e8:	f2 0f 58 c8          	addsd  %xmm0,%xmm1
    12ec:	48 3d 20 03 00 00    	cmp    $0x320,%rax
    12f2:	75 dc                	jne    12d0 <main+0x250>
    12f4:	48 89 ee             	mov    %rbp,%rsi
    12f7:	4c 89 e7             	mov    %r12,%rdi
    12fa:	ba 64 00 00 00       	mov    $0x64,%edx
    12ff:	f2 0f 11 4c 24 20    	movsd  %xmm1,0x20(%rsp)
    1305:	e8 c6 02 00 00       	callq  15d0 <dotprod_2x>
    130a:	ba 64 00 00 00       	mov    $0x64,%edx
    130f:	f2 0f 11 44 24 18    	movsd  %xmm0,0x18(%rsp)
    1315:	e8 96 04 00 00       	callq  17b0 <dotprod_4x>
    131a:	ba 64 00 00 00       	mov    $0x64,%edx
    131f:	f2 0f 11 44 24 10    	movsd  %xmm0,0x10(%rsp)
    1325:	e8 d6 06 00 00       	callq  1a00 <dotprod_8x>
    132a:	ba 64 00 00 00       	mov    $0x64,%edx
    132f:	f2 0f 11 44 24 08    	movsd  %xmm0,0x8(%rsp)
    1335:	e8 36 0c 00 00       	callq  1f70 <dotprod_16x>
    133a:	f2 0f 10 4c 24 20    	movsd  0x20(%rsp),%xmm1
    1340:	b8 01 00 00 00       	mov    $0x1,%eax
    1345:	48 8d 3d b8 1c 00 00 	lea    0x1cb8(%rip),%rdi        # 3004 <_IO_stdin_used+0x4>
    134c:	f2 0f 11 04 24       	movsd  %xmm0,(%rsp)
    1351:	66 0f 28 c1          	movapd %xmm1,%xmm0
    1355:	e8 e6 fc ff ff       	callq  1040 <printf@plt>
    135a:	f2 0f 10 6c 24 18    	movsd  0x18(%rsp),%xmm5
    1360:	b8 01 00 00 00       	mov    $0x1,%eax
    1365:	48 8d 3d a3 1c 00 00 	lea    0x1ca3(%rip),%rdi        # 300f <_IO_stdin_used+0xf>
    136c:	66 0f 28 c5          	movapd %xmm5,%xmm0
    1370:	e8 cb fc ff ff       	callq  1040 <printf@plt>
    1375:	f2 0f 10 64 24 10    	movsd  0x10(%rsp),%xmm4
    137b:	b8 01 00 00 00       	mov    $0x1,%eax
    1380:	48 8d 3d 96 1c 00 00 	lea    0x1c96(%rip),%rdi        # 301d <_IO_stdin_used+0x1d>
    1387:	66 0f 28 c4          	movapd %xmm4,%xmm0
    138b:	e8 b0 fc ff ff       	callq  1040 <printf@plt>
    1390:	f2 0f 10 5c 24 08    	movsd  0x8(%rsp),%xmm3
    1396:	b8 01 00 00 00       	mov    $0x1,%eax
    139b:	48 8d 3d 89 1c 00 00 	lea    0x1c89(%rip),%rdi        # 302b <_IO_stdin_used+0x2b>
    13a2:	66 0f 28 c3          	movapd %xmm3,%xmm0
    13a6:	e8 95 fc ff ff       	callq  1040 <printf@plt>
    13ab:	f2 0f 10 14 24       	movsd  (%rsp),%xmm2
    13b0:	b8 01 00 00 00       	mov    $0x1,%eax
    13b5:	48 8d 3d 7d 1c 00 00 	lea    0x1c7d(%rip),%rdi        # 3039 <_IO_stdin_used+0x39>
    13bc:	66 0f 28 c2          	movapd %xmm2,%xmm0
    13c0:	e8 7b fc ff ff       	callq  1040 <printf@plt>
    13c5:	4c 89 e7             	mov    %r12,%rdi
    13c8:	e8 63 fc ff ff       	callq  1030 <free@plt>
    13cd:	48 89 ef             	mov    %rbp,%rdi
    13d0:	e8 5b fc ff ff       	callq  1030 <free@plt>
    13d5:	48 83 c4 50          	add    $0x50,%rsp
    13d9:	31 c0                	xor    %eax,%eax
    13db:	5d                   	pop    %rbp
    13dc:	41 5c                	pop    %r12
    13de:	41 5d                	pop    %r13
    13e0:	c3                   	retq   
    13e1:	0f 1f 80 00 00 00 00 	nopl   0x0(%rax)
    13e8:	66 0f ef d2          	pxor   %xmm2,%xmm2
    13ec:	31 c0                	xor    %eax,%eax
    13ee:	66 0f 28 da          	movapd %xmm2,%xmm3
    13f2:	e9 7f fd ff ff       	jmpq   1176 <main+0xf6>
    13f7:	66 0f ef d2          	pxor   %xmm2,%xmm2
    13fb:	66 0f 28 25 4d 1c 00 	movapd 0x1c4d(%rip),%xmm4        # 3050 <_IO_stdin_used+0x50>
    1402:	00 
    1403:	66 0f 28 2d 55 1c 00 	movapd 0x1c55(%rip),%xmm5        # 3060 <_IO_stdin_used+0x60>
    140a:	00 
    140b:	66 0f 28 da          	movapd %xmm2,%xmm3
    140f:	e9 72 fd ff ff       	jmpq   1186 <main+0x106>
    1414:	66 0f 28 25 34 1c 00 	movapd 0x1c34(%rip),%xmm4        # 3050 <_IO_stdin_used+0x50>
    141b:	00 
    141c:	66 0f 28 2d 3c 1c 00 	movapd 0x1c3c(%rip),%xmm5        # 3060 <_IO_stdin_used+0x60>
    1423:	00 
    1424:	31 c0                	xor    %eax,%eax
    1426:	e9 e5 fc ff ff       	jmpq   1110 <main+0x90>
    142b:	0f 1f 44 00 00       	nopl   0x0(%rax,%rax,1)

0000000000001430 <_start>:
    1430:	f3 0f 1e fa          	endbr64 
    1434:	31 ed                	xor    %ebp,%ebp
    1436:	49 89 d1             	mov    %rdx,%r9
    1439:	5e                   	pop    %rsi
    143a:	48 89 e2             	mov    %rsp,%rdx
    143d:	48 83 e4 f0          	and    $0xfffffffffffffff0,%rsp
    1441:	50                   	push   %rax
    1442:	54                   	push   %rsp
    1443:	4c 8d 05 46 18 00 00 	lea    0x1846(%rip),%r8        # 2c90 <__libc_csu_fini>
    144a:	48 8d 0d cf 17 00 00 	lea    0x17cf(%rip),%rcx        # 2c20 <__libc_csu_init>
    1451:	48 8d 3d 28 fc ff ff 	lea    -0x3d8(%rip),%rdi        # 1080 <main>
    1458:	ff 15 82 3b 00 00    	callq  *0x3b82(%rip)        # 4fe0 <__libc_start_main@GLIBC_2.2.5>
    145e:	f4                   	hlt    
    145f:	90                   	nop

0000000000001460 <deregister_tm_clones>:
    1460:	48 8d 3d e9 3b 00 00 	lea    0x3be9(%rip),%rdi        # 5050 <__TMC_END__>
    1467:	48 8d 05 e2 3b 00 00 	lea    0x3be2(%rip),%rax        # 5050 <__TMC_END__>
    146e:	48 39 f8             	cmp    %rdi,%rax
    1471:	74 15                	je     1488 <deregister_tm_clones+0x28>
    1473:	48 8b 05 5e 3b 00 00 	mov    0x3b5e(%rip),%rax        # 4fd8 <_ITM_deregisterTMCloneTable>
    147a:	48 85 c0             	test   %rax,%rax
    147d:	74 09                	je     1488 <deregister_tm_clones+0x28>
    147f:	ff e0                	jmpq   *%rax
    1481:	0f 1f 80 00 00 00 00 	nopl   0x0(%rax)
    1488:	c3                   	retq   
    1489:	0f 1f 80 00 00 00 00 	nopl   0x0(%rax)

0000000000001490 <register_tm_clones>:
    1490:	48 8d 3d b9 3b 00 00 	lea    0x3bb9(%rip),%rdi        # 5050 <__TMC_END__>
    1497:	48 8d 35 b2 3b 00 00 	lea    0x3bb2(%rip),%rsi        # 5050 <__TMC_END__>
    149e:	48 29 fe             	sub    %rdi,%rsi
    14a1:	48 89 f0             	mov    %rsi,%rax
    14a4:	48 c1 ee 3f          	shr    $0x3f,%rsi
    14a8:	48 c1 f8 03          	sar    $0x3,%rax
    14ac:	48 01 c6             	add    %rax,%rsi
    14af:	48 d1 fe             	sar    %rsi
    14b2:	74 14                	je     14c8 <register_tm_clones+0x38>
    14b4:	48 8b 05 35 3b 00 00 	mov    0x3b35(%rip),%rax        # 4ff0 <_ITM_registerTMCloneTable>
    14bb:	48 85 c0             	test   %rax,%rax
    14be:	74 08                	je     14c8 <register_tm_clones+0x38>
    14c0:	ff e0                	jmpq   *%rax
    14c2:	66 0f 1f 44 00 00    	nopw   0x0(%rax,%rax,1)
    14c8:	c3                   	retq   
    14c9:	0f 1f 80 00 00 00 00 	nopl   0x0(%rax)

00000000000014d0 <__do_global_dtors_aux>:
    14d0:	f3 0f 1e fa          	endbr64 
    14d4:	80 3d 75 3b 00 00 00 	cmpb   $0x0,0x3b75(%rip)        # 5050 <__TMC_END__>
    14db:	75 33                	jne    1510 <__do_global_dtors_aux+0x40>
    14dd:	55                   	push   %rbp
    14de:	48 83 3d 12 3b 00 00 	cmpq   $0x0,0x3b12(%rip)        # 4ff8 <__cxa_finalize@GLIBC_2.2.5>
    14e5:	00 
    14e6:	48 89 e5             	mov    %rsp,%rbp
    14e9:	74 0d                	je     14f8 <__do_global_dtors_aux+0x28>
    14eb:	48 8b 3d 56 3b 00 00 	mov    0x3b56(%rip),%rdi        # 5048 <__dso_handle>
    14f2:	ff 15 00 3b 00 00    	callq  *0x3b00(%rip)        # 4ff8 <__cxa_finalize@GLIBC_2.2.5>
    14f8:	e8 63 ff ff ff       	callq  1460 <deregister_tm_clones>
    14fd:	c6 05 4c 3b 00 00 01 	movb   $0x1,0x3b4c(%rip)        # 5050 <__TMC_END__>
    1504:	5d                   	pop    %rbp
    1505:	c3                   	retq   
    1506:	66 2e 0f 1f 84 00 00 	nopw   %cs:0x0(%rax,%rax,1)
    150d:	00 00 00 
    1510:	c3                   	retq   
    1511:	66 66 2e 0f 1f 84 00 	data16 nopw %cs:0x0(%rax,%rax,1)
    1518:	00 00 00 00 
    151c:	0f 1f 40 00          	nopl   0x0(%rax)

0000000000001520 <frame_dummy>:
    1520:	f3 0f 1e fa          	endbr64 
    1524:	e9 67 ff ff ff       	jmpq   1490 <register_tm_clones>
    1529:	0f 1f 80 00 00 00 00 	nopl   0x0(%rax)

0000000000001530 <parse_args>:
    1530:	83 ff 02             	cmp    $0x2,%edi
    1533:	75 10                	jne    1545 <parse_args+0x15>
    1535:	48 8b 7e 08          	mov    0x8(%rsi),%rdi
    1539:	ba 0a 00 00 00       	mov    $0xa,%edx
    153e:	31 f6                	xor    %esi,%esi
    1540:	e9 0b fb ff ff       	jmpq   1050 <strtoll@plt>
    1545:	50                   	push   %rax
    1546:	bf 01 00 00 00       	mov    $0x1,%edi
    154b:	e8 10 fb ff ff       	callq  1060 <exit@plt>

0000000000001550 <dotprod>:
    1550:	48 85 d2             	test   %rdx,%rdx
    1553:	74 63                	je     15b8 <dotprod+0x68>
    1555:	48 83 fa 01          	cmp    $0x1,%rdx
    1559:	74 66                	je     15c1 <dotprod+0x71>
    155b:	48 89 d1             	mov    %rdx,%rcx
    155e:	31 c0                	xor    %eax,%eax
    1560:	66 0f ef c9          	pxor   %xmm1,%xmm1
    1564:	48 d1 e9             	shr    %rcx
    1567:	48 c1 e1 04          	shl    $0x4,%rcx
    156b:	0f 1f 44 00 00       	nopl   0x0(%rax,%rax,1)
    1570:	66 0f 10 04 07       	movupd (%rdi,%rax,1),%xmm0
    1575:	66 0f 10 1c 06       	movupd (%rsi,%rax,1),%xmm3
    157a:	48 83 c0 10          	add    $0x10,%rax
    157e:	66 0f 59 c3          	mulpd  %xmm3,%xmm0
    1582:	f2 0f 58 c8          	addsd  %xmm0,%xmm1
    1586:	66 0f 15 c0          	unpckhpd %xmm0,%xmm0
    158a:	f2 0f 58 c8          	addsd  %xmm0,%xmm1
    158e:	48 39 c1             	cmp    %rax,%rcx
    1591:	75 dd                	jne    1570 <dotprod+0x20>
    1593:	48 89 d0             	mov    %rdx,%rax
    1596:	48 83 e0 fe          	and    $0xfffffffffffffffe,%rax
    159a:	83 e2 01             	and    $0x1,%edx
    159d:	74 0e                	je     15ad <dotprod+0x5d>
    159f:	f2 0f 10 04 c6       	movsd  (%rsi,%rax,8),%xmm0
    15a4:	f2 0f 59 04 c7       	mulsd  (%rdi,%rax,8),%xmm0
    15a9:	f2 0f 58 c8          	addsd  %xmm0,%xmm1
    15ad:	66 0f 28 c1          	movapd %xmm1,%xmm0
    15b1:	c3                   	retq   
    15b2:	66 0f 1f 44 00 00    	nopw   0x0(%rax,%rax,1)
    15b8:	66 0f ef c9          	pxor   %xmm1,%xmm1
    15bc:	66 0f 28 c1          	movapd %xmm1,%xmm0
    15c0:	c3                   	retq   
    15c1:	31 c0                	xor    %eax,%eax
    15c3:	66 0f ef c9          	pxor   %xmm1,%xmm1
    15c7:	eb d6                	jmp    159f <dotprod+0x4f>
    15c9:	0f 1f 80 00 00 00 00 	nopl   0x0(%rax)

00000000000015d0 <dotprod_2x>:
    15d0:	48 89 d0             	mov    %rdx,%rax
    15d3:	83 e0 01             	and    $0x1,%eax
    15d6:	0f 85 c4 00 00 00    	jne    16a0 <dotprod_2x+0xd0>
    15dc:	48 85 d2             	test   %rdx,%rdx
    15df:	0f 84 9b 01 00 00    	je     1780 <dotprod_2x+0x1b0>
    15e5:	48 83 ea 01          	sub    $0x1,%rdx
    15e9:	48 89 d1             	mov    %rdx,%rcx
    15ec:	48 d1 e9             	shr    %rcx
    15ef:	48 83 c1 01          	add    $0x1,%rcx
    15f3:	48 83 fa 01          	cmp    $0x1,%rdx
    15f7:	0f 86 91 01 00 00    	jbe    178e <dotprod_2x+0x1be>
    15fd:	48 89 ca             	mov    %rcx,%rdx
    1600:	66 0f ef c9          	pxor   %xmm1,%xmm1
    1604:	48 d1 ea             	shr    %rdx
    1607:	66 0f 28 d1          	movapd %xmm1,%xmm2
    160b:	48 c1 e2 05          	shl    $0x5,%rdx
    160f:	90                   	nop
    1610:	66 0f 10 1c 07       	movupd (%rdi,%rax,1),%xmm3
    1615:	66 0f 10 04 06       	movupd (%rsi,%rax,1),%xmm0
    161a:	66 0f 16 5c 07 10    	movhpd 0x10(%rdi,%rax,1),%xmm3
    1620:	66 0f 16 44 06 10    	movhpd 0x10(%rsi,%rax,1),%xmm0
    1626:	66 0f 59 d8          	mulpd  %xmm0,%xmm3
    162a:	66 0f 10 44 07 10    	movupd 0x10(%rdi,%rax,1),%xmm0
    1630:	66 0f 12 44 07 08    	movlpd 0x8(%rdi,%rax,1),%xmm0
    1636:	f2 0f 58 d3          	addsd  %xmm3,%xmm2
    163a:	66 0f 15 db          	unpckhpd %xmm3,%xmm3
    163e:	f2 0f 58 d3          	addsd  %xmm3,%xmm2
    1642:	66 0f 10 5c 06 10    	movupd 0x10(%rsi,%rax,1),%xmm3
    1648:	66 0f 12 5c 06 08    	movlpd 0x8(%rsi,%rax,1),%xmm3
    164e:	48 83 c0 20          	add    $0x20,%rax
    1652:	66 0f 59 c3          	mulpd  %xmm3,%xmm0
    1656:	f2 0f 58 c8          	addsd  %xmm0,%xmm1
    165a:	66 0f 15 c0          	unpckhpd %xmm0,%xmm0
    165e:	f2 0f 58 c8          	addsd  %xmm0,%xmm1
    1662:	48 39 d0             	cmp    %rdx,%rax
    1665:	75 a9                	jne    1610 <dotprod_2x+0x40>
    1667:	48 89 ca             	mov    %rcx,%rdx
    166a:	48 83 e2 fe          	and    $0xfffffffffffffffe,%rdx
    166e:	48 8d 04 12          	lea    (%rdx,%rdx,1),%rax
    1672:	48 39 d1             	cmp    %rdx,%rcx
    1675:	74 1e                	je     1695 <dotprod_2x+0xc5>
    1677:	f2 0f 10 04 c7       	movsd  (%rdi,%rax,8),%xmm0
    167c:	f2 0f 59 04 c6       	mulsd  (%rsi,%rax,8),%xmm0
    1681:	f2 0f 58 d0          	addsd  %xmm0,%xmm2
    1685:	f2 0f 10 44 c7 08    	movsd  0x8(%rdi,%rax,8),%xmm0
    168b:	f2 0f 59 44 c6 08    	mulsd  0x8(%rsi,%rax,8),%xmm0
    1691:	f2 0f 58 c8          	addsd  %xmm0,%xmm1
    1695:	f2 0f 58 d1          	addsd  %xmm1,%xmm2
    1699:	66 0f 28 c2          	movapd %xmm2,%xmm0
    169d:	c3                   	retq   
    169e:	66 90                	xchg   %ax,%ax
    16a0:	48 83 fa 01          	cmp    $0x1,%rdx
    16a4:	0f 84 de 00 00 00    	je     1788 <dotprod_2x+0x1b8>
    16aa:	48 8d 42 fe          	lea    -0x2(%rdx),%rax
    16ae:	49 89 c0             	mov    %rax,%r8
    16b1:	49 d1 e8             	shr    %r8
    16b4:	49 83 c0 01          	add    $0x1,%r8
    16b8:	48 83 f8 01          	cmp    $0x1,%rax
    16bc:	0f 86 d9 00 00 00    	jbe    179b <dotprod_2x+0x1cb>
    16c2:	4c 89 c1             	mov    %r8,%rcx
    16c5:	66 0f ef db          	pxor   %xmm3,%xmm3
    16c9:	31 c0                	xor    %eax,%eax
    16cb:	48 d1 e9             	shr    %rcx
    16ce:	66 0f 28 c3          	movapd %xmm3,%xmm0
    16d2:	48 c1 e1 05          	shl    $0x5,%rcx
    16d6:	66 2e 0f 1f 84 00 00 	nopw   %cs:0x0(%rax,%rax,1)
    16dd:	00 00 00 
    16e0:	66 0f 10 24 06       	movupd (%rsi,%rax,1),%xmm4
    16e5:	66 0f 10 0c 07       	movupd (%rdi,%rax,1),%xmm1
    16ea:	66 0f 10 54 07 10    	movupd 0x10(%rdi,%rax,1),%xmm2
    16f0:	66 0f 12 54 07 08    	movlpd 0x8(%rdi,%rax,1),%xmm2
    16f6:	66 0f 16 4c 07 10    	movhpd 0x10(%rdi,%rax,1),%xmm1
    16fc:	66 0f 16 64 06 10    	movhpd 0x10(%rsi,%rax,1),%xmm4
    1702:	66 0f 59 e1          	mulpd  %xmm1,%xmm4
    1706:	66 0f 10 4c 06 10    	movupd 0x10(%rsi,%rax,1),%xmm1
    170c:	66 0f 12 4c 06 08    	movlpd 0x8(%rsi,%rax,1),%xmm1
    1712:	48 83 c0 20          	add    $0x20,%rax
    1716:	66 0f 59 ca          	mulpd  %xmm2,%xmm1
    171a:	f2 0f 58 c4          	addsd  %xmm4,%xmm0
    171e:	66 0f 15 e4          	unpckhpd %xmm4,%xmm4
    1722:	f2 0f 58 d9          	addsd  %xmm1,%xmm3
    1726:	66 0f 15 c9          	unpckhpd %xmm1,%xmm1
    172a:	f2 0f 58 c4          	addsd  %xmm4,%xmm0
    172e:	f2 0f 58 d9          	addsd  %xmm1,%xmm3
    1732:	48 39 c1             	cmp    %rax,%rcx
    1735:	75 a9                	jne    16e0 <dotprod_2x+0x110>
    1737:	4c 89 c1             	mov    %r8,%rcx
    173a:	48 83 e1 fe          	and    $0xfffffffffffffffe,%rcx
    173e:	48 8d 04 09          	lea    (%rcx,%rcx,1),%rax
    1742:	4c 39 c1             	cmp    %r8,%rcx
    1745:	74 1e                	je     1765 <dotprod_2x+0x195>
    1747:	f2 0f 10 0c c6       	movsd  (%rsi,%rax,8),%xmm1
    174c:	f2 0f 59 0c c7       	mulsd  (%rdi,%rax,8),%xmm1
    1751:	f2 0f 58 c1          	addsd  %xmm1,%xmm0
    1755:	f2 0f 10 4c c6 08    	movsd  0x8(%rsi,%rax,8),%xmm1
    175b:	f2 0f 59 4c c7 08    	mulsd  0x8(%rdi,%rax,8),%xmm1
    1761:	f2 0f 58 d9          	addsd  %xmm1,%xmm3
    1765:	f2 0f 58 d8          	addsd  %xmm0,%xmm3
    1769:	66 0f 28 cb          	movapd %xmm3,%xmm1
    176d:	f2 0f 10 44 d7 f8    	movsd  -0x8(%rdi,%rdx,8),%xmm0
    1773:	f2 0f 59 44 d6 f8    	mulsd  -0x8(%rsi,%rdx,8),%xmm0
    1779:	f2 0f 58 c1          	addsd  %xmm1,%xmm0
    177d:	c3                   	retq   
    177e:	66 90                	xchg   %ax,%ax
    1780:	66 0f ef c0          	pxor   %xmm0,%xmm0
    1784:	c3                   	retq   
    1785:	0f 1f 00             	nopl   (%rax)
    1788:	66 0f ef c9          	pxor   %xmm1,%xmm1
    178c:	eb df                	jmp    176d <dotprod_2x+0x19d>
    178e:	66 0f ef c9          	pxor   %xmm1,%xmm1
    1792:	66 0f 28 d1          	movapd %xmm1,%xmm2
    1796:	e9 dc fe ff ff       	jmpq   1677 <dotprod_2x+0xa7>
    179b:	66 0f ef db          	pxor   %xmm3,%xmm3
    179f:	31 c0                	xor    %eax,%eax
    17a1:	66 0f 28 c3          	movapd %xmm3,%xmm0
    17a5:	eb a0                	jmp    1747 <dotprod_2x+0x177>
    17a7:	66 0f 1f 84 00 00 00 	nopw   0x0(%rax,%rax,1)
    17ae:	00 00 

00000000000017b0 <dotprod_4x>:
    17b0:	49 89 d1             	mov    %rdx,%r9
    17b3:	48 89 d1             	mov    %rdx,%rcx
    17b6:	41 83 e1 03          	and    $0x3,%r9d
    17ba:	48 85 d2             	test   %rdx,%rdx
    17bd:	0f 84 fd 01 00 00    	je     19c0 <dotprod_4x+0x210>
    17c3:	48 8d 42 ff          	lea    -0x1(%rdx),%rax
    17c7:	49 89 c2             	mov    %rax,%r10
    17ca:	49 c1 ea 02          	shr    $0x2,%r10
    17ce:	49 83 c2 01          	add    $0x1,%r10
    17d2:	48 83 f8 03          	cmp    $0x3,%rax
    17d6:	0f 86 fd 01 00 00    	jbe    19d9 <dotprod_4x+0x229>
    17dc:	4d 89 d0             	mov    %r10,%r8
    17df:	66 45 0f ef c9       	pxor   %xmm9,%xmm9
    17e4:	48 89 f8             	mov    %rdi,%rax
    17e7:	48 89 f2             	mov    %rsi,%rdx
    17ea:	49 d1 e8             	shr    %r8
    17ed:	66 45 0f 28 d1       	movapd %xmm9,%xmm10
    17f2:	66 41 0f 28 f1       	movapd %xmm9,%xmm6
    17f7:	49 c1 e0 06          	shl    $0x6,%r8
    17fb:	66 45 0f 28 c1       	movapd %xmm9,%xmm8
    1800:	49 01 f8             	add    %rdi,%r8
    1803:	0f 1f 44 00 00       	nopl   0x0(%rax,%rax,1)
    1808:	66 0f 10 18          	movupd (%rax),%xmm3
    180c:	66 0f 10 12          	movupd (%rdx),%xmm2
    1810:	48 83 c0 40          	add    $0x40,%rax
    1814:	48 83 c2 40          	add    $0x40,%rdx
    1818:	66 44 0f 10 68 e0    	movupd -0x20(%rax),%xmm13
    181e:	66 44 0f 10 62 e0    	movupd -0x20(%rdx),%xmm12
    1824:	66 0f 16 58 d0       	movhpd -0x30(%rax),%xmm3
    1829:	66 0f 16 52 d0       	movhpd -0x30(%rdx),%xmm2
    182e:	66 0f 10 48 d0       	movupd -0x30(%rax),%xmm1
    1833:	66 0f 10 62 d0       	movupd -0x30(%rdx),%xmm4
    1838:	66 44 0f 16 68 f0    	movhpd -0x10(%rax),%xmm13
    183e:	66 44 0f 16 62 f0    	movhpd -0x10(%rdx),%xmm12
    1844:	66 0f 28 eb          	movapd %xmm3,%xmm5
    1848:	66 0f 12 48 c8       	movlpd -0x38(%rax),%xmm1
    184d:	66 0f 28 c2          	movapd %xmm2,%xmm0
    1851:	66 41 0f 14 ed       	unpcklpd %xmm13,%xmm5
    1856:	66 0f 12 62 c8       	movlpd -0x38(%rdx),%xmm4
    185b:	66 44 0f 10 58 f0    	movupd -0x10(%rax),%xmm11
    1861:	66 41 0f 14 c4       	unpcklpd %xmm12,%xmm0
    1866:	66 44 0f 12 58 e8    	movlpd -0x18(%rax),%xmm11
    186c:	66 0f 10 7a f0       	movupd -0x10(%rdx),%xmm7
    1871:	66 41 0f 15 dd       	unpckhpd %xmm13,%xmm3
    1876:	66 0f 59 e8          	mulpd  %xmm0,%xmm5
    187a:	66 0f 12 7a e8       	movlpd -0x18(%rdx),%xmm7
    187f:	66 0f 28 c4          	movapd %xmm4,%xmm0
    1883:	66 41 0f 15 d4       	unpckhpd %xmm12,%xmm2
    1888:	66 0f 59 d3          	mulpd  %xmm3,%xmm2
    188c:	66 0f 14 c7          	unpcklpd %xmm7,%xmm0
    1890:	66 0f 15 e7          	unpckhpd %xmm7,%xmm4
    1894:	f2 44 0f 58 c5       	addsd  %xmm5,%xmm8
    1899:	66 0f 15 ed          	unpckhpd %xmm5,%xmm5
    189d:	f2 44 0f 58 d2       	addsd  %xmm2,%xmm10
    18a2:	66 0f 15 d2          	unpckhpd %xmm2,%xmm2
    18a6:	f2 44 0f 58 c5       	addsd  %xmm5,%xmm8
    18ab:	66 0f 28 e9          	movapd %xmm1,%xmm5
    18af:	66 41 0f 15 cb       	unpckhpd %xmm11,%xmm1
    18b4:	66 41 0f 14 eb       	unpcklpd %xmm11,%xmm5
    18b9:	f2 44 0f 58 d2       	addsd  %xmm2,%xmm10
    18be:	66 0f 59 e8          	mulpd  %xmm0,%xmm5
    18c2:	66 0f 28 c4          	movapd %xmm4,%xmm0
    18c6:	66 0f 59 c1          	mulpd  %xmm1,%xmm0
    18ca:	f2 0f 58 f5          	addsd  %xmm5,%xmm6
    18ce:	66 0f 15 ed          	unpckhpd %xmm5,%xmm5
    18d2:	f2 44 0f 58 c8       	addsd  %xmm0,%xmm9
    18d7:	66 0f 15 c0          	unpckhpd %xmm0,%xmm0
    18db:	f2 0f 58 f5          	addsd  %xmm5,%xmm6
    18df:	f2 44 0f 58 c8       	addsd  %xmm0,%xmm9
    18e4:	49 39 c0             	cmp    %rax,%r8
    18e7:	0f 85 1b ff ff ff    	jne    1808 <dotprod_4x+0x58>
    18ed:	4c 89 d0             	mov    %r10,%rax
    18f0:	48 83 e0 fe          	and    $0xfffffffffffffffe,%rax
    18f4:	48 8d 14 85 00 00 00 	lea    0x0(,%rax,4),%rdx
    18fb:	00 
    18fc:	4c 39 d0             	cmp    %r10,%rax
    18ff:	0f 84 ab 00 00 00    	je     19b0 <dotprod_4x+0x200>
    1905:	f2 0f 10 04 d6       	movsd  (%rsi,%rdx,8),%xmm0
    190a:	f2 0f 59 04 d7       	mulsd  (%rdi,%rdx,8),%xmm0
    190f:	48 8d 04 d5 00 00 00 	lea    0x0(,%rdx,8),%rax
    1916:	00 
    1917:	f2 44 0f 58 c0       	addsd  %xmm0,%xmm8
    191c:	f2 0f 10 44 06 08    	movsd  0x8(%rsi,%rax,1),%xmm0
    1922:	f2 0f 59 44 07 08    	mulsd  0x8(%rdi,%rax,1),%xmm0
    1928:	f2 0f 58 f0          	addsd  %xmm0,%xmm6
    192c:	f2 0f 10 44 06 10    	movsd  0x10(%rsi,%rax,1),%xmm0
    1932:	f2 0f 59 44 07 10    	mulsd  0x10(%rdi,%rax,1),%xmm0
    1938:	f2 44 0f 58 d0       	addsd  %xmm0,%xmm10
    193d:	f2 0f 10 44 06 18    	movsd  0x18(%rsi,%rax,1),%xmm0
    1943:	f2 0f 59 44 07 18    	mulsd  0x18(%rdi,%rax,1),%xmm0
    1949:	f2 44 0f 58 c8       	addsd  %xmm0,%xmm9
    194e:	4d 85 c9             	test   %r9,%r9
    1951:	74 1d                	je     1970 <dotprod_4x+0x1c0>
    1953:	66 41 0f 28 e8       	movapd %xmm8,%xmm5
    1958:	f2 0f 58 ee          	addsd  %xmm6,%xmm5
    195c:	66 0f 28 d5          	movapd %xmm5,%xmm2
    1960:	f2 41 0f 58 d2       	addsd  %xmm10,%xmm2
    1965:	f2 41 0f 58 d1       	addsd  %xmm9,%xmm2
    196a:	66 0f 28 c2          	movapd %xmm2,%xmm0
    196e:	c3                   	retq   
    196f:	90                   	nop
    1970:	48 89 c8             	mov    %rcx,%rax
    1973:	48 83 c0 fd          	add    $0xfffffffffffffffd,%rax
    1977:	73 da                	jae    1953 <dotprod_4x+0x1a3>
    1979:	66 0f 10 0c c6       	movupd (%rsi,%rax,8),%xmm1
    197e:	66 0f 10 3c c7       	movupd (%rdi,%rax,8),%xmm7
    1983:	f2 0f 10 54 c6 10    	movsd  0x10(%rsi,%rax,8),%xmm2
    1989:	f2 0f 59 54 c7 10    	mulsd  0x10(%rdi,%rax,8),%xmm2
    198f:	66 0f 59 cf          	mulpd  %xmm7,%xmm1
    1993:	f2 44 0f 58 c1       	addsd  %xmm1,%xmm8
    1998:	66 0f 15 c9          	unpckhpd %xmm1,%xmm1
    199c:	f2 41 0f 58 c8       	addsd  %xmm8,%xmm1
    19a1:	f2 0f 58 d1          	addsd  %xmm1,%xmm2
    19a5:	66 44 0f 28 c2       	movapd %xmm2,%xmm8
    19aa:	eb a7                	jmp    1953 <dotprod_4x+0x1a3>
    19ac:	0f 1f 40 00          	nopl   0x0(%rax)
    19b0:	4d 85 c9             	test   %r9,%r9
    19b3:	75 9e                	jne    1953 <dotprod_4x+0x1a3>
    19b5:	48 8d 41 fd          	lea    -0x3(%rcx),%rax
    19b9:	eb be                	jmp    1979 <dotprod_4x+0x1c9>
    19bb:	0f 1f 44 00 00       	nopl   0x0(%rax,%rax,1)
    19c0:	66 45 0f ef c9       	pxor   %xmm9,%xmm9
    19c5:	66 45 0f 28 d1       	movapd %xmm9,%xmm10
    19ca:	66 41 0f 28 f1       	movapd %xmm9,%xmm6
    19cf:	66 45 0f 28 c1       	movapd %xmm9,%xmm8
    19d4:	e9 7a ff ff ff       	jmpq   1953 <dotprod_4x+0x1a3>
    19d9:	66 45 0f ef c9       	pxor   %xmm9,%xmm9
    19de:	31 d2                	xor    %edx,%edx
    19e0:	66 45 0f 28 d1       	movapd %xmm9,%xmm10
    19e5:	66 41 0f 28 f1       	movapd %xmm9,%xmm6
    19ea:	66 45 0f 28 c1       	movapd %xmm9,%xmm8
    19ef:	e9 11 ff ff ff       	jmpq   1905 <dotprod_4x+0x155>
    19f4:	66 66 2e 0f 1f 84 00 	data16 nopw %cs:0x0(%rax,%rax,1)
    19fb:	00 00 00 00 
    19ff:	90                   	nop

0000000000001a00 <dotprod_8x>:
    1a00:	49 89 d1             	mov    %rdx,%r9
    1a03:	48 89 d1             	mov    %rdx,%rcx
    1a06:	41 83 e1 07          	and    $0x7,%r9d
    1a0a:	48 85 d2             	test   %rdx,%rdx
    1a0d:	0f 84 e5 04 00 00    	je     1ef8 <dotprod_8x+0x4f8>
    1a13:	48 8d 42 ff          	lea    -0x1(%rdx),%rax
    1a17:	49 89 c2             	mov    %rax,%r10
    1a1a:	49 c1 ea 03          	shr    $0x3,%r10
    1a1e:	49 83 c2 01          	add    $0x1,%r10
    1a22:	48 83 f8 07          	cmp    $0x7,%rax
    1a26:	0f 86 05 05 00 00    	jbe    1f31 <dotprod_8x+0x531>
    1a2c:	4d 89 d0             	mov    %r10,%r8
    1a2f:	66 45 0f ef ed       	pxor   %xmm13,%xmm13
    1a34:	48 89 f0             	mov    %rsi,%rax
    1a37:	48 89 fa             	mov    %rdi,%rdx
    1a3a:	49 d1 e8             	shr    %r8
    1a3d:	f2 44 0f 11 6c 24 e8 	movsd  %xmm13,-0x18(%rsp)
    1a44:	66 45 0f 28 fd       	movapd %xmm13,%xmm15
    1a49:	49 c1 e0 07          	shl    $0x7,%r8
    1a4d:	f2 44 0f 11 6c 24 b0 	movsd  %xmm13,-0x50(%rsp)
    1a54:	49 01 f0             	add    %rsi,%r8
    1a57:	f2 44 0f 11 6c 24 a8 	movsd  %xmm13,-0x58(%rsp)
    1a5e:	f2 44 0f 11 6c 24 a0 	movsd  %xmm13,-0x60(%rsp)
    1a65:	f2 44 0f 11 6c 24 98 	movsd  %xmm13,-0x68(%rsp)
    1a6c:	f2 44 0f 11 6c 24 90 	movsd  %xmm13,-0x70(%rsp)
    1a73:	f2 44 0f 11 6c 24 f0 	movsd  %xmm13,-0x10(%rsp)
    1a7a:	66 0f 1f 44 00 00    	nopw   0x0(%rax,%rax,1)
    1a80:	66 0f 10 0a          	movupd (%rdx),%xmm1
    1a84:	66 0f 10 7a 20       	movupd 0x20(%rdx),%xmm7
    1a89:	48 83 e8 80          	sub    $0xffffffffffffff80,%rax
    1a8d:	48 83 ea 80          	sub    $0xffffffffffffff80,%rdx
    1a91:	66 0f 10 6a c0       	movupd -0x40(%rdx),%xmm5
    1a96:	66 0f 10 5a e0       	movupd -0x20(%rdx),%xmm3
    1a9b:	66 0f 16 4a 90       	movhpd -0x70(%rdx),%xmm1
    1aa0:	66 0f 16 7a b0       	movhpd -0x50(%rdx),%xmm7
    1aa5:	66 0f 10 72 d0       	movupd -0x30(%rdx),%xmm6
    1aaa:	66 0f 12 72 c8       	movlpd -0x38(%rdx),%xmm6
    1aaf:	66 0f 16 5a f0       	movhpd -0x10(%rdx),%xmm3
    1ab4:	66 0f 16 6a d0       	movhpd -0x30(%rdx),%xmm5
    1ab9:	66 44 0f 28 c9       	movapd %xmm1,%xmm9
    1abe:	66 0f 10 42 90       	movupd -0x70(%rdx),%xmm0
    1ac3:	66 44 0f 14 cf       	unpcklpd %xmm7,%xmm9
    1ac8:	66 0f 12 42 88       	movlpd -0x78(%rdx),%xmm0
    1acd:	66 0f 15 cf          	unpckhpd %xmm7,%xmm1
    1ad1:	66 0f 10 52 f0       	movupd -0x10(%rdx),%xmm2
    1ad6:	66 0f 28 fd          	movapd %xmm5,%xmm7
    1ada:	66 0f 12 52 e8       	movlpd -0x18(%rdx),%xmm2
    1adf:	66 0f 15 eb          	unpckhpd %xmm3,%xmm5
    1ae3:	66 0f 10 62 b0       	movupd -0x50(%rdx),%xmm4
    1ae8:	66 44 0f 28 ed       	movapd %xmm5,%xmm13
    1aed:	66 0f 12 62 a8       	movlpd -0x58(%rdx),%xmm4
    1af2:	66 0f 28 ee          	movapd %xmm6,%xmm5
    1af6:	66 44 0f 10 70 80    	movupd -0x80(%rax),%xmm14
    1afc:	66 44 0f 10 60 a0    	movupd -0x60(%rax),%xmm12
    1b02:	66 0f 14 fb          	unpcklpd %xmm3,%xmm7
    1b06:	66 0f 14 ea          	unpcklpd %xmm2,%xmm5
    1b0a:	66 0f 28 d8          	movapd %xmm0,%xmm3
    1b0e:	66 44 0f 10 58 c0    	movupd -0x40(%rax),%xmm11
    1b14:	66 0f 14 dc          	unpcklpd %xmm4,%xmm3
    1b18:	66 0f 15 c4          	unpckhpd %xmm4,%xmm0
    1b1c:	66 0f 15 f2          	unpckhpd %xmm2,%xmm6
    1b20:	66 44 0f 10 50 e0    	movupd -0x20(%rax),%xmm10
    1b26:	66 0f 10 50 90       	movupd -0x70(%rax),%xmm2
    1b2b:	66 44 0f 16 60 b0    	movhpd -0x50(%rax),%xmm12
    1b31:	66 44 0f 16 70 90    	movhpd -0x70(%rax),%xmm14
    1b37:	66 0f 12 50 88       	movlpd -0x78(%rax),%xmm2
    1b3c:	66 44 0f 16 58 d0    	movhpd -0x30(%rax),%xmm11
    1b42:	66 44 0f 10 40 b0    	movupd -0x50(%rax),%xmm8
    1b48:	0f 29 7c 24 c8       	movaps %xmm7,-0x38(%rsp)
    1b4d:	66 44 0f 12 40 a8    	movlpd -0x58(%rax),%xmm8
    1b53:	66 44 0f 16 50 f0    	movhpd -0x10(%rax),%xmm10
    1b59:	0f 29 6c 24 b8       	movaps %xmm5,-0x48(%rsp)
    1b5e:	66 0f 10 68 d0       	movupd -0x30(%rax),%xmm5
    1b63:	66 0f 12 68 c8       	movlpd -0x38(%rax),%xmm5
    1b68:	66 0f 10 60 f0       	movupd -0x10(%rax),%xmm4
    1b6d:	66 0f 12 60 e8       	movlpd -0x18(%rax),%xmm4
    1b72:	66 0f 28 fc          	movapd %xmm4,%xmm7
    1b76:	66 41 0f 28 e6       	movapd %xmm14,%xmm4
    1b7b:	66 45 0f 15 f4       	unpckhpd %xmm12,%xmm14
    1b80:	66 41 0f 14 e4       	unpcklpd %xmm12,%xmm4
    1b85:	66 45 0f 28 e3       	movapd %xmm11,%xmm12
    1b8a:	66 45 0f 15 da       	unpckhpd %xmm10,%xmm11
    1b8f:	66 45 0f 14 e2       	unpcklpd %xmm10,%xmm12
    1b94:	66 44 0f 28 d2       	movapd %xmm2,%xmm10
    1b99:	66 41 0f 15 d0       	unpckhpd %xmm8,%xmm2
    1b9e:	66 45 0f 14 d0       	unpcklpd %xmm8,%xmm10
    1ba3:	66 44 0f 28 c5       	movapd %xmm5,%xmm8
    1ba8:	66 0f 15 ef          	unpckhpd %xmm7,%xmm5
    1bac:	66 44 0f 14 c7       	unpcklpd %xmm7,%xmm8
    1bb1:	66 0f 28 fc          	movapd %xmm4,%xmm7
    1bb5:	66 41 0f 15 e4       	unpckhpd %xmm12,%xmm4
    1bba:	44 0f 29 44 24 d8    	movaps %xmm8,-0x28(%rsp)
    1bc0:	66 45 0f 28 c1       	movapd %xmm9,%xmm8
    1bc5:	66 41 0f 14 fc       	unpcklpd %xmm12,%xmm7
    1bca:	66 44 0f 16 44 24 c8 	movhpd -0x38(%rsp),%xmm8
    1bd1:	66 41 0f 59 f8       	mulpd  %xmm8,%xmm7
    1bd6:	66 44 0f 28 c3       	movapd %xmm3,%xmm8
    1bdb:	66 44 0f 16 44 24 b8 	movhpd -0x48(%rsp),%xmm8
    1be2:	f2 44 0f 58 ff       	addsd  %xmm7,%xmm15
    1be7:	66 0f 15 ff          	unpckhpd %xmm7,%xmm7
    1beb:	f2 44 0f 58 ff       	addsd  %xmm7,%xmm15
    1bf0:	66 41 0f 28 fa       	movapd %xmm10,%xmm7
    1bf5:	66 0f 16 7c 24 d8    	movhpd -0x28(%rsp),%xmm7
    1bfb:	66 41 0f 59 f8       	mulpd  %xmm8,%xmm7
    1c00:	f2 44 0f 10 44 24 90 	movsd  -0x70(%rsp),%xmm8
    1c07:	f2 44 0f 58 c7       	addsd  %xmm7,%xmm8
    1c0c:	66 0f 15 ff          	unpckhpd %xmm7,%xmm7
    1c10:	f2 44 0f 58 c7       	addsd  %xmm7,%xmm8
    1c15:	66 41 0f 28 fe       	movapd %xmm14,%xmm7
    1c1a:	66 45 0f 15 f3       	unpckhpd %xmm11,%xmm14
    1c1f:	66 41 0f 14 fb       	unpcklpd %xmm11,%xmm7
    1c24:	f2 44 0f 11 44 24 90 	movsd  %xmm8,-0x70(%rsp)
    1c2b:	66 44 0f 28 c1       	movapd %xmm1,%xmm8
    1c30:	66 41 0f 15 cd       	unpckhpd %xmm13,%xmm1
    1c35:	66 44 0f 59 f1       	mulpd  %xmm1,%xmm14
    1c3a:	66 45 0f 14 c5       	unpcklpd %xmm13,%xmm8
    1c3f:	f2 0f 10 4c 24 e8    	movsd  -0x18(%rsp),%xmm1
    1c45:	f2 44 0f 10 6c 24 f0 	movsd  -0x10(%rsp),%xmm13
    1c4c:	66 41 0f 59 f8       	mulpd  %xmm8,%xmm7
    1c51:	f2 44 0f 10 44 24 98 	movsd  -0x68(%rsp),%xmm8
    1c58:	f2 41 0f 58 ce       	addsd  %xmm14,%xmm1
    1c5d:	66 45 0f 15 f6       	unpckhpd %xmm14,%xmm14
    1c62:	f2 44 0f 58 c7       	addsd  %xmm7,%xmm8
    1c67:	66 0f 15 ff          	unpckhpd %xmm7,%xmm7
    1c6b:	f2 41 0f 58 ce       	addsd  %xmm14,%xmm1
    1c70:	f2 44 0f 58 c7       	addsd  %xmm7,%xmm8
    1c75:	66 0f 28 fa          	movapd %xmm2,%xmm7
    1c79:	66 0f 15 d5          	unpckhpd %xmm5,%xmm2
    1c7d:	66 0f 14 fd          	unpcklpd %xmm5,%xmm7
    1c81:	f2 0f 11 4c 24 e8    	movsd  %xmm1,-0x18(%rsp)
    1c87:	f2 44 0f 11 44 24 98 	movsd  %xmm8,-0x68(%rsp)
    1c8e:	66 44 0f 28 c0       	movapd %xmm0,%xmm8
    1c93:	66 0f 15 c6          	unpckhpd %xmm6,%xmm0
    1c97:	66 0f 59 d0          	mulpd  %xmm0,%xmm2
    1c9b:	66 44 0f 14 c6       	unpcklpd %xmm6,%xmm8
    1ca0:	66 41 0f 59 f8       	mulpd  %xmm8,%xmm7
    1ca5:	f2 44 0f 10 44 24 a0 	movsd  -0x60(%rsp),%xmm8
    1cac:	f2 44 0f 58 ea       	addsd  %xmm2,%xmm13
    1cb1:	66 0f 15 d2          	unpckhpd %xmm2,%xmm2
    1cb5:	f2 44 0f 58 c7       	addsd  %xmm7,%xmm8
    1cba:	66 0f 15 ff          	unpckhpd %xmm7,%xmm7
    1cbe:	f2 44 0f 58 ea       	addsd  %xmm2,%xmm13
    1cc3:	f2 44 0f 58 c7       	addsd  %xmm7,%xmm8
    1cc8:	66 0f 28 7c 24 c8    	movapd -0x38(%rsp),%xmm7
    1cce:	66 44 0f 15 cf       	unpckhpd %xmm7,%xmm9
    1cd3:	f2 0f 10 7c 24 a8    	movsd  -0x58(%rsp),%xmm7
    1cd9:	f2 44 0f 11 6c 24 f0 	movsd  %xmm13,-0x10(%rsp)
    1ce0:	66 44 0f 59 cc       	mulpd  %xmm4,%xmm9
    1ce5:	f2 44 0f 11 44 24 a0 	movsd  %xmm8,-0x60(%rsp)
    1cec:	66 0f 28 64 24 b8    	movapd -0x48(%rsp),%xmm4
    1cf2:	66 44 0f 28 44 24 d8 	movapd -0x28(%rsp),%xmm8
    1cf9:	66 0f 15 dc          	unpckhpd %xmm4,%xmm3
    1cfd:	66 45 0f 15 d0       	unpckhpd %xmm8,%xmm10
    1d02:	f2 0f 10 64 24 b0    	movsd  -0x50(%rsp),%xmm4
    1d08:	66 41 0f 59 da       	mulpd  %xmm10,%xmm3
    1d0d:	f2 41 0f 58 f9       	addsd  %xmm9,%xmm7
    1d12:	66 45 0f 15 c9       	unpckhpd %xmm9,%xmm9
    1d17:	f2 0f 58 e3          	addsd  %xmm3,%xmm4
    1d1b:	66 0f 15 db          	unpckhpd %xmm3,%xmm3
    1d1f:	f2 41 0f 58 f9       	addsd  %xmm9,%xmm7
    1d24:	f2 0f 58 e3          	addsd  %xmm3,%xmm4
    1d28:	f2 0f 11 7c 24 a8    	movsd  %xmm7,-0x58(%rsp)
    1d2e:	f2 0f 11 64 24 b0    	movsd  %xmm4,-0x50(%rsp)
    1d34:	49 39 c0             	cmp    %rax,%r8
    1d37:	0f 85 43 fd ff ff    	jne    1a80 <dotprod_8x+0x80>
    1d3d:	4c 89 d0             	mov    %r10,%rax
    1d40:	48 83 e0 fe          	and    $0xfffffffffffffffe,%rax
    1d44:	48 8d 14 c5 00 00 00 	lea    0x0(,%rax,8),%rdx
    1d4b:	00 
    1d4c:	4c 39 d0             	cmp    %r10,%rax
    1d4f:	0f 84 8b 01 00 00    	je     1ee0 <dotprod_8x+0x4e0>
    1d55:	f2 0f 10 04 d6       	movsd  (%rsi,%rdx,8),%xmm0
    1d5a:	f2 0f 59 04 d7       	mulsd  (%rdi,%rdx,8),%xmm0
    1d5f:	48 8d 04 d5 00 00 00 	lea    0x0(,%rdx,8),%rax
    1d66:	00 
    1d67:	f2 44 0f 58 f8       	addsd  %xmm0,%xmm15
    1d6c:	f2 0f 10 44 06 08    	movsd  0x8(%rsi,%rax,1),%xmm0
    1d72:	f2 0f 59 44 07 08    	mulsd  0x8(%rdi,%rax,1),%xmm0
    1d78:	f2 0f 58 44 24 90    	addsd  -0x70(%rsp),%xmm0
    1d7e:	f2 0f 11 44 24 90    	movsd  %xmm0,-0x70(%rsp)
    1d84:	f2 0f 10 44 06 10    	movsd  0x10(%rsi,%rax,1),%xmm0
    1d8a:	f2 0f 59 44 07 10    	mulsd  0x10(%rdi,%rax,1),%xmm0
    1d90:	f2 0f 58 44 24 98    	addsd  -0x68(%rsp),%xmm0
    1d96:	f2 0f 11 44 24 98    	movsd  %xmm0,-0x68(%rsp)
    1d9c:	f2 0f 10 44 06 18    	movsd  0x18(%rsi,%rax,1),%xmm0
    1da2:	f2 0f 59 44 07 18    	mulsd  0x18(%rdi,%rax,1),%xmm0
    1da8:	f2 0f 58 44 24 a0    	addsd  -0x60(%rsp),%xmm0
    1dae:	f2 0f 11 44 24 a0    	movsd  %xmm0,-0x60(%rsp)
    1db4:	f2 0f 10 44 06 20    	movsd  0x20(%rsi,%rax,1),%xmm0
    1dba:	f2 0f 59 44 07 20    	mulsd  0x20(%rdi,%rax,1),%xmm0
    1dc0:	f2 0f 58 44 24 a8    	addsd  -0x58(%rsp),%xmm0
    1dc6:	f2 0f 11 44 24 a8    	movsd  %xmm0,-0x58(%rsp)
    1dcc:	f2 0f 10 44 06 28    	movsd  0x28(%rsi,%rax,1),%xmm0
    1dd2:	f2 0f 59 44 07 28    	mulsd  0x28(%rdi,%rax,1),%xmm0
    1dd8:	f2 0f 58 44 24 b0    	addsd  -0x50(%rsp),%xmm0
    1dde:	f2 0f 11 44 24 b0    	movsd  %xmm0,-0x50(%rsp)
    1de4:	f2 0f 10 44 06 30    	movsd  0x30(%rsi,%rax,1),%xmm0
    1dea:	f2 0f 59 44 07 30    	mulsd  0x30(%rdi,%rax,1),%xmm0
    1df0:	f2 0f 58 44 24 e8    	addsd  -0x18(%rsp),%xmm0
    1df6:	f2 0f 11 44 24 e8    	movsd  %xmm0,-0x18(%rsp)
    1dfc:	f2 0f 10 44 06 38    	movsd  0x38(%rsi,%rax,1),%xmm0
    1e02:	f2 0f 59 44 07 38    	mulsd  0x38(%rdi,%rax,1),%xmm0
    1e08:	f2 44 0f 58 e8       	addsd  %xmm0,%xmm13
    1e0d:	4d 85 c9             	test   %r9,%r9
    1e10:	74 36                	je     1e48 <dotprod_8x+0x448>
    1e12:	f2 0f 10 7c 24 90    	movsd  -0x70(%rsp),%xmm7
    1e18:	f2 0f 10 44 24 98    	movsd  -0x68(%rsp),%xmm0
    1e1e:	f2 41 0f 58 ff       	addsd  %xmm15,%xmm7
    1e23:	f2 0f 58 c7          	addsd  %xmm7,%xmm0
    1e27:	f2 0f 58 44 24 a0    	addsd  -0x60(%rsp),%xmm0
    1e2d:	f2 0f 58 44 24 a8    	addsd  -0x58(%rsp),%xmm0
    1e33:	f2 0f 58 44 24 b0    	addsd  -0x50(%rsp),%xmm0
    1e39:	f2 0f 58 44 24 e8    	addsd  -0x18(%rsp),%xmm0
    1e3f:	f2 41 0f 58 c5       	addsd  %xmm13,%xmm0
    1e44:	c3                   	retq   
    1e45:	0f 1f 00             	nopl   (%rax)
    1e48:	48 83 c1 f9          	add    $0xfffffffffffffff9,%rcx
    1e4c:	48 89 c8             	mov    %rcx,%rax
    1e4f:	73 c1                	jae    1e12 <dotprod_8x+0x412>
    1e51:	48 c1 e0 03          	shl    $0x3,%rax
    1e55:	48 8d 14 07          	lea    (%rdi,%rax,1),%rdx
    1e59:	48 8d 0c 06          	lea    (%rsi,%rax,1),%rcx
    1e5d:	66 44 0f 10 02       	movupd (%rdx),%xmm8
    1e62:	66 0f 10 09          	movupd (%rcx),%xmm1
    1e66:	66 0f 10 71 10       	movupd 0x10(%rcx),%xmm6
    1e6b:	66 0f 10 41 20       	movupd 0x20(%rcx),%xmm0
    1e70:	66 44 0f 59 c1       	mulpd  %xmm1,%xmm8
    1e75:	66 41 0f 28 f8       	movapd %xmm8,%xmm7
    1e7a:	66 45 0f 15 c0       	unpckhpd %xmm8,%xmm8
    1e7f:	f2 41 0f 58 ff       	addsd  %xmm15,%xmm7
    1e84:	f2 41 0f 58 f8       	addsd  %xmm8,%xmm7
    1e89:	66 44 0f 10 42 10    	movupd 0x10(%rdx),%xmm8
    1e8f:	66 44 0f 59 c6       	mulpd  %xmm6,%xmm8
    1e94:	f2 41 0f 58 f8       	addsd  %xmm8,%xmm7
    1e99:	66 45 0f 15 c0       	unpckhpd %xmm8,%xmm8
    1e9e:	f2 41 0f 58 f8       	addsd  %xmm8,%xmm7
    1ea3:	66 44 0f 10 42 20    	movupd 0x20(%rdx),%xmm8
    1ea9:	66 41 0f 59 c0       	mulpd  %xmm8,%xmm0
    1eae:	f2 44 0f 10 44 06 30 	movsd  0x30(%rsi,%rax,1),%xmm8
    1eb5:	f2 44 0f 59 44 07 30 	mulsd  0x30(%rdi,%rax,1),%xmm8
    1ebc:	f2 0f 58 f8          	addsd  %xmm0,%xmm7
    1ec0:	66 0f 15 c0          	unpckhpd %xmm0,%xmm0
    1ec4:	66 45 0f 28 f8       	movapd %xmm8,%xmm15
    1ec9:	f2 0f 58 f8          	addsd  %xmm0,%xmm7
    1ecd:	f2 44 0f 58 ff       	addsd  %xmm7,%xmm15
    1ed2:	e9 3b ff ff ff       	jmpq   1e12 <dotprod_8x+0x412>
    1ed7:	66 0f 1f 84 00 00 00 	nopw   0x0(%rax,%rax,1)
    1ede:	00 00 
    1ee0:	4d 85 c9             	test   %r9,%r9
    1ee3:	0f 85 29 ff ff ff    	jne    1e12 <dotprod_8x+0x412>
    1ee9:	48 8d 41 f9          	lea    -0x7(%rcx),%rax
    1eed:	e9 5f ff ff ff       	jmpq   1e51 <dotprod_8x+0x451>
    1ef2:	66 0f 1f 44 00 00    	nopw   0x0(%rax,%rax,1)
    1ef8:	66 45 0f ef ed       	pxor   %xmm13,%xmm13
    1efd:	f2 44 0f 11 6c 24 e8 	movsd  %xmm13,-0x18(%rsp)
    1f04:	66 45 0f 28 fd       	movapd %xmm13,%xmm15
    1f09:	f2 44 0f 11 6c 24 b0 	movsd  %xmm13,-0x50(%rsp)
    1f10:	f2 44 0f 11 6c 24 a8 	movsd  %xmm13,-0x58(%rsp)
    1f17:	f2 44 0f 11 6c 24 a0 	movsd  %xmm13,-0x60(%rsp)
    1f1e:	f2 44 0f 11 6c 24 98 	movsd  %xmm13,-0x68(%rsp)
    1f25:	f2 44 0f 11 6c 24 90 	movsd  %xmm13,-0x70(%rsp)
    1f2c:	e9 e1 fe ff ff       	jmpq   1e12 <dotprod_8x+0x412>
    1f31:	66 45 0f ef ed       	pxor   %xmm13,%xmm13
    1f36:	31 d2                	xor    %edx,%edx
    1f38:	f2 44 0f 11 6c 24 e8 	movsd  %xmm13,-0x18(%rsp)
    1f3f:	66 45 0f 28 fd       	movapd %xmm13,%xmm15
    1f44:	f2 44 0f 11 6c 24 b0 	movsd  %xmm13,-0x50(%rsp)
    1f4b:	f2 44 0f 11 6c 24 a8 	movsd  %xmm13,-0x58(%rsp)
    1f52:	f2 44 0f 11 6c 24 a0 	movsd  %xmm13,-0x60(%rsp)
    1f59:	f2 44 0f 11 6c 24 98 	movsd  %xmm13,-0x68(%rsp)
    1f60:	f2 44 0f 11 6c 24 90 	movsd  %xmm13,-0x70(%rsp)
    1f67:	e9 e9 fd ff ff       	jmpq   1d55 <dotprod_8x+0x355>
    1f6c:	0f 1f 40 00          	nopl   0x0(%rax)

0000000000001f70 <dotprod_16x>:
    1f70:	49 89 d2             	mov    %rdx,%r10
    1f73:	48 81 ec 30 01 00 00 	sub    $0x130,%rsp
    1f7a:	41 83 e2 0f          	and    $0xf,%r10d
    1f7e:	48 85 d2             	test   %rdx,%rdx
    1f81:	0f 84 c1 0b 00 00    	je     2b48 <dotprod_16x+0xbd8>
    1f87:	48 8d 42 ff          	lea    -0x1(%rdx),%rax
    1f8b:	49 89 d0             	mov    %rdx,%r8
    1f8e:	49 89 c1             	mov    %rax,%r9
    1f91:	49 c1 e9 04          	shr    $0x4,%r9
    1f95:	49 83 c1 01          	add    $0x1,%r9
    1f99:	48 83 f8 0f          	cmp    $0xf,%rax
    1f9d:	0f 86 0d 0c 00 00    	jbe    2bb0 <dotprod_16x+0xc40>
    1fa3:	4c 89 c9             	mov    %r9,%rcx
    1fa6:	66 0f ef ed          	pxor   %xmm5,%xmm5
    1faa:	48 89 f0             	mov    %rsi,%rax
    1fad:	48 89 fa             	mov    %rdi,%rdx
    1fb0:	48 d1 e9             	shr    %rcx
    1fb3:	f2 0f 11 2c 24       	movsd  %xmm5,(%rsp)
    1fb8:	48 c1 e1 08          	shl    $0x8,%rcx
    1fbc:	f2 0f 11 6c 24 f8    	movsd  %xmm5,-0x8(%rsp)
    1fc2:	48 01 f1             	add    %rsi,%rcx
    1fc5:	f2 0f 11 6c 24 f0    	movsd  %xmm5,-0x10(%rsp)
    1fcb:	f2 0f 11 6c 24 e8    	movsd  %xmm5,-0x18(%rsp)
    1fd1:	f2 0f 11 6c 24 e0    	movsd  %xmm5,-0x20(%rsp)
    1fd7:	f2 0f 11 6c 24 d8    	movsd  %xmm5,-0x28(%rsp)
    1fdd:	f2 0f 11 6c 24 d0    	movsd  %xmm5,-0x30(%rsp)
    1fe3:	f2 0f 11 6c 24 c8    	movsd  %xmm5,-0x38(%rsp)
    1fe9:	f2 0f 11 6c 24 c0    	movsd  %xmm5,-0x40(%rsp)
    1fef:	f2 0f 11 6c 24 b8    	movsd  %xmm5,-0x48(%rsp)
    1ff5:	f2 0f 11 6c 24 b0    	movsd  %xmm5,-0x50(%rsp)
    1ffb:	f2 0f 11 6c 24 a8    	movsd  %xmm5,-0x58(%rsp)
    2001:	f2 0f 11 6c 24 a0    	movsd  %xmm5,-0x60(%rsp)
    2007:	f2 0f 11 6c 24 98    	movsd  %xmm5,-0x68(%rsp)
    200d:	f2 0f 11 6c 24 90    	movsd  %xmm5,-0x70(%rsp)
    2013:	f2 0f 11 6c 24 88    	movsd  %xmm5,-0x78(%rsp)
    2019:	0f 1f 80 00 00 00 00 	nopl   0x0(%rax)
    2020:	66 44 0f 10 3a       	movupd (%rdx),%xmm15
    2025:	66 44 0f 10 72 20    	movupd 0x20(%rdx),%xmm14
    202b:	48 05 00 01 00 00    	add    $0x100,%rax
    2031:	48 81 c2 00 01 00 00 	add    $0x100,%rdx
    2038:	66 0f 10 b2 40 ff ff 	movupd -0xc0(%rdx),%xmm6
    203f:	ff 
    2040:	66 0f 10 6a 80       	movupd -0x80(%rdx),%xmm5
    2045:	66 44 0f 10 aa 60 ff 	movupd -0xa0(%rdx),%xmm13
    204c:	ff ff 
    204e:	66 44 0f 10 62 a0    	movupd -0x60(%rdx),%xmm12
    2054:	66 44 0f 16 ba 10 ff 	movhpd -0xf0(%rdx),%xmm15
    205b:	ff ff 
    205d:	66 44 0f 16 b2 30 ff 	movhpd -0xd0(%rdx),%xmm14
    2064:	ff ff 
    2066:	66 0f 10 62 c0       	movupd -0x40(%rdx),%xmm4
    206b:	66 44 0f 10 5a e0    	movupd -0x20(%rdx),%xmm11
    2071:	66 0f 16 b2 50 ff ff 	movhpd -0xb0(%rdx),%xmm6
    2078:	ff 
    2079:	66 0f 16 6a 90       	movhpd -0x70(%rdx),%xmm5
    207e:	66 0f 10 7a f0       	movupd -0x10(%rdx),%xmm7
    2083:	66 0f 12 7a e8       	movlpd -0x18(%rdx),%xmm7
    2088:	66 44 0f 16 aa 70 ff 	movhpd -0x90(%rdx),%xmm13
    208f:	ff ff 
    2091:	66 44 0f 16 62 b0    	movhpd -0x50(%rdx),%xmm12
    2097:	66 44 0f 16 5a f0    	movhpd -0x10(%rdx),%xmm11
    209d:	66 0f 16 62 d0       	movhpd -0x30(%rdx),%xmm4
    20a2:	66 0f 10 9a 10 ff ff 	movupd -0xf0(%rdx),%xmm3
    20a9:	ff 
    20aa:	66 44 0f 10 92 30 ff 	movupd -0xd0(%rdx),%xmm10
    20b1:	ff ff 
    20b3:	66 0f 12 9a 08 ff ff 	movlpd -0xf8(%rdx),%xmm3
    20ba:	ff 
    20bb:	66 0f 10 92 50 ff ff 	movupd -0xb0(%rdx),%xmm2
    20c2:	ff 
    20c3:	66 44 0f 12 92 28 ff 	movlpd -0xd8(%rdx),%xmm10
    20ca:	ff ff 
    20cc:	66 0f 12 92 48 ff ff 	movlpd -0xb8(%rdx),%xmm2
    20d3:	ff 
    20d4:	66 44 0f 10 8a 70 ff 	movupd -0x90(%rdx),%xmm9
    20db:	ff ff 
    20dd:	66 0f 10 4a 90       	movupd -0x70(%rdx),%xmm1
    20e2:	66 44 0f 12 8a 68 ff 	movlpd -0x98(%rdx),%xmm9
    20e9:	ff ff 
    20eb:	66 0f 12 4a 88       	movlpd -0x78(%rdx),%xmm1
    20f0:	66 44 0f 10 42 b0    	movupd -0x50(%rdx),%xmm8
    20f6:	66 0f 10 42 d0       	movupd -0x30(%rdx),%xmm0
    20fb:	66 44 0f 12 42 a8    	movlpd -0x58(%rdx),%xmm8
    2101:	66 0f 12 42 c8       	movlpd -0x38(%rdx),%xmm0
    2106:	0f 29 7c 24 18       	movaps %xmm7,0x18(%rsp)
    210b:	66 41 0f 28 ff       	movapd %xmm15,%xmm7
    2110:	66 41 0f 14 fe       	unpcklpd %xmm14,%xmm7
    2115:	66 45 0f 15 fe       	unpckhpd %xmm14,%xmm15
    211a:	66 44 0f 28 f6       	movapd %xmm6,%xmm14
    211f:	66 45 0f 14 f5       	unpcklpd %xmm13,%xmm14
    2124:	66 41 0f 15 f5       	unpckhpd %xmm13,%xmm6
    2129:	66 44 0f 28 ed       	movapd %xmm5,%xmm13
    212e:	66 45 0f 14 ec       	unpcklpd %xmm12,%xmm13
    2133:	66 41 0f 15 ec       	unpckhpd %xmm12,%xmm5
    2138:	66 44 0f 28 e4       	movapd %xmm4,%xmm12
    213d:	66 45 0f 14 e3       	unpcklpd %xmm11,%xmm12
    2142:	66 41 0f 15 e3       	unpckhpd %xmm11,%xmm4
    2147:	66 44 0f 28 db       	movapd %xmm3,%xmm11
    214c:	66 45 0f 14 da       	unpcklpd %xmm10,%xmm11
    2151:	66 41 0f 15 da       	unpckhpd %xmm10,%xmm3
    2156:	66 44 0f 28 d2       	movapd %xmm2,%xmm10
    215b:	66 41 0f 15 d1       	unpckhpd %xmm9,%xmm2
    2160:	66 45 0f 14 d1       	unpcklpd %xmm9,%xmm10
    2165:	66 44 0f 28 c9       	movapd %xmm1,%xmm9
    216a:	0f 29 54 24 08       	movaps %xmm2,0x8(%rsp)
    216f:	66 0f 28 54 24 18    	movapd 0x18(%rsp),%xmm2
    2175:	66 41 0f 15 c8       	unpckhpd %xmm8,%xmm1
    217a:	66 45 0f 14 c8       	unpcklpd %xmm8,%xmm9
    217f:	66 44 0f 28 c0       	movapd %xmm0,%xmm8
    2184:	66 44 0f 14 c2       	unpcklpd %xmm2,%xmm8
    2189:	66 0f 15 c2          	unpckhpd %xmm2,%xmm0
    218d:	66 0f 28 d7          	movapd %xmm7,%xmm2
    2191:	66 41 0f 15 fe       	unpckhpd %xmm14,%xmm7
    2196:	66 41 0f 14 d6       	unpcklpd %xmm14,%xmm2
    219b:	0f 29 bc 24 08 01 00 	movaps %xmm7,0x108(%rsp)
    21a2:	00 
    21a3:	66 41 0f 28 fd       	movapd %xmm13,%xmm7
    21a8:	66 45 0f 15 ec       	unpckhpd %xmm12,%xmm13
    21ad:	66 41 0f 14 fc       	unpcklpd %xmm12,%xmm7
    21b2:	66 45 0f 28 e3       	movapd %xmm11,%xmm12
    21b7:	66 45 0f 15 da       	unpckhpd %xmm10,%xmm11
    21bc:	0f 29 94 24 18 01 00 	movaps %xmm2,0x118(%rsp)
    21c3:	00 
    21c4:	66 45 0f 14 e2       	unpcklpd %xmm10,%xmm12
    21c9:	66 45 0f 28 d1       	movapd %xmm9,%xmm10
    21ce:	66 45 0f 15 c8       	unpckhpd %xmm8,%xmm9
    21d3:	0f 29 bc 24 f8 00 00 	movaps %xmm7,0xf8(%rsp)
    21da:	00 
    21db:	44 0f 29 ac 24 e8 00 	movaps %xmm13,0xe8(%rsp)
    21e2:	00 00 
    21e4:	66 45 0f 14 d0       	unpcklpd %xmm8,%xmm10
    21e9:	66 45 0f 28 c7       	movapd %xmm15,%xmm8
    21ee:	66 44 0f 15 fe       	unpckhpd %xmm6,%xmm15
    21f3:	44 0f 29 bc 24 88 00 	movaps %xmm15,0x88(%rsp)
    21fa:	00 00 
    21fc:	66 44 0f 14 c6       	unpcklpd %xmm6,%xmm8
    2201:	66 0f 28 f5          	movapd %xmm5,%xmm6
    2205:	66 0f 15 ec          	unpckhpd %xmm4,%xmm5
    2209:	66 0f 14 f4          	unpcklpd %xmm4,%xmm6
    220d:	66 0f 28 e3          	movapd %xmm3,%xmm4
    2211:	0f 29 6c 24 68       	movaps %xmm5,0x68(%rsp)
    2216:	66 0f 28 e9          	movapd %xmm1,%xmm5
    221a:	0f 29 74 24 78       	movaps %xmm6,0x78(%rsp)
    221f:	66 0f 28 74 24 08    	movapd 0x8(%rsp),%xmm6
    2225:	66 0f 14 e8          	unpcklpd %xmm0,%xmm5
    2229:	44 0f 29 94 24 b8 00 	movaps %xmm10,0xb8(%rsp)
    2230:	00 00 
    2232:	66 0f 14 e6          	unpcklpd %xmm6,%xmm4
    2236:	66 0f 15 de          	unpckhpd %xmm6,%xmm3
    223a:	44 0f 29 a4 24 d8 00 	movaps %xmm12,0xd8(%rsp)
    2241:	00 00 
    2243:	0f 29 64 24 58       	movaps %xmm4,0x58(%rsp)
    2248:	66 0f 28 e1          	movapd %xmm1,%xmm4
    224c:	66 0f 15 e0          	unpckhpd %xmm0,%xmm4
    2250:	0f 29 5c 24 48       	movaps %xmm3,0x48(%rsp)
    2255:	66 0f 10 80 00 ff ff 	movupd -0x100(%rax),%xmm0
    225c:	ff 
    225d:	44 0f 29 9c 24 c8 00 	movaps %xmm11,0xc8(%rsp)
    2264:	00 00 
    2266:	66 0f 16 80 10 ff ff 	movhpd -0xf0(%rax),%xmm0
    226d:	ff 
    226e:	0f 29 6c 24 38       	movaps %xmm5,0x38(%rsp)
    2273:	66 44 0f 28 f8       	movapd %xmm0,%xmm15
    2278:	66 0f 10 80 10 ff ff 	movupd -0xf0(%rax),%xmm0
    227f:	ff 
    2280:	0f 29 64 24 28       	movaps %xmm4,0x28(%rsp)
    2285:	66 0f 12 80 08 ff ff 	movlpd -0xf8(%rax),%xmm0
    228c:	ff 
    228d:	44 0f 29 8c 24 a8 00 	movaps %xmm9,0xa8(%rsp)
    2294:	00 00 
    2296:	0f 29 44 24 18       	movaps %xmm0,0x18(%rsp)
    229b:	66 0f 10 80 20 ff ff 	movupd -0xe0(%rax),%xmm0
    22a2:	ff 
    22a3:	44 0f 29 84 24 98 00 	movaps %xmm8,0x98(%rsp)
    22aa:	00 00 
    22ac:	66 0f 16 80 30 ff ff 	movhpd -0xd0(%rax),%xmm0
    22b3:	ff 
    22b4:	66 44 0f 28 f0       	movapd %xmm0,%xmm14
    22b9:	66 0f 10 80 30 ff ff 	movupd -0xd0(%rax),%xmm0
    22c0:	ff 
    22c1:	66 0f 12 80 28 ff ff 	movlpd -0xd8(%rax),%xmm0
    22c8:	ff 
    22c9:	66 44 0f 28 d0       	movapd %xmm0,%xmm10
    22ce:	66 0f 10 80 40 ff ff 	movupd -0xc0(%rax),%xmm0
    22d5:	ff 
    22d6:	66 0f 16 80 50 ff ff 	movhpd -0xb0(%rax),%xmm0
    22dd:	ff 
    22de:	66 0f 28 f0          	movapd %xmm0,%xmm6
    22e2:	66 0f 10 80 50 ff ff 	movupd -0xb0(%rax),%xmm0
    22e9:	ff 
    22ea:	66 0f 12 80 48 ff ff 	movlpd -0xb8(%rax),%xmm0
    22f1:	ff 
    22f2:	66 0f 28 d8          	movapd %xmm0,%xmm3
    22f6:	66 0f 10 80 60 ff ff 	movupd -0xa0(%rax),%xmm0
    22fd:	ff 
    22fe:	66 0f 16 80 70 ff ff 	movhpd -0x90(%rax),%xmm0
    2305:	ff 
    2306:	66 44 0f 28 e8       	movapd %xmm0,%xmm13
    230b:	66 0f 10 80 70 ff ff 	movupd -0x90(%rax),%xmm0
    2312:	ff 
    2313:	66 0f 12 80 68 ff ff 	movlpd -0x98(%rax),%xmm0
    231a:	ff 
    231b:	66 44 0f 28 c8       	movapd %xmm0,%xmm9
    2320:	66 0f 10 40 80       	movupd -0x80(%rax),%xmm0
    2325:	66 0f 16 40 90       	movhpd -0x70(%rax),%xmm0
    232a:	66 0f 28 e8          	movapd %xmm0,%xmm5
    232e:	66 0f 10 40 90       	movupd -0x70(%rax),%xmm0
    2333:	66 0f 12 40 88       	movlpd -0x78(%rax),%xmm0
    2338:	66 0f 28 d0          	movapd %xmm0,%xmm2
    233c:	66 0f 10 40 a0       	movupd -0x60(%rax),%xmm0
    2341:	66 0f 16 40 b0       	movhpd -0x50(%rax),%xmm0
    2346:	66 44 0f 28 e0       	movapd %xmm0,%xmm12
    234b:	66 0f 10 40 b0       	movupd -0x50(%rax),%xmm0
    2350:	66 0f 12 40 a8       	movlpd -0x58(%rax),%xmm0
    2355:	66 44 0f 28 c0       	movapd %xmm0,%xmm8
    235a:	66 0f 10 40 c0       	movupd -0x40(%rax),%xmm0
    235f:	66 0f 16 40 d0       	movhpd -0x30(%rax),%xmm0
    2364:	66 0f 28 e0          	movapd %xmm0,%xmm4
    2368:	66 0f 10 40 d0       	movupd -0x30(%rax),%xmm0
    236d:	66 0f 12 40 c8       	movlpd -0x38(%rax),%xmm0
    2372:	66 0f 28 c8          	movapd %xmm0,%xmm1
    2376:	66 0f 10 40 e0       	movupd -0x20(%rax),%xmm0
    237b:	66 0f 16 40 f0       	movhpd -0x10(%rax),%xmm0
    2380:	66 44 0f 28 d8       	movapd %xmm0,%xmm11
    2385:	66 0f 10 40 f0       	movupd -0x10(%rax),%xmm0
    238a:	66 0f 12 40 e8       	movlpd -0x18(%rax),%xmm0
    238f:	66 0f 28 f8          	movapd %xmm0,%xmm7
    2393:	66 41 0f 28 c7       	movapd %xmm15,%xmm0
    2398:	66 45 0f 15 fe       	unpckhpd %xmm14,%xmm15
    239d:	66 41 0f 14 c6       	unpcklpd %xmm14,%xmm0
    23a2:	66 44 0f 28 f6       	movapd %xmm6,%xmm14
    23a7:	66 41 0f 15 f5       	unpckhpd %xmm13,%xmm6
    23ac:	0f 29 44 24 08       	movaps %xmm0,0x8(%rsp)
    23b1:	66 0f 28 44 24 18    	movapd 0x18(%rsp),%xmm0
    23b7:	66 45 0f 14 f5       	unpcklpd %xmm13,%xmm14
    23bc:	66 44 0f 28 ed       	movapd %xmm5,%xmm13
    23c1:	66 45 0f 14 ec       	unpcklpd %xmm12,%xmm13
    23c6:	66 41 0f 15 ec       	unpckhpd %xmm12,%xmm5
    23cb:	66 44 0f 28 e4       	movapd %xmm4,%xmm12
    23d0:	66 41 0f 14 c2       	unpcklpd %xmm10,%xmm0
    23d5:	66 45 0f 14 e3       	unpcklpd %xmm11,%xmm12
    23da:	66 41 0f 15 e3       	unpckhpd %xmm11,%xmm4
    23df:	66 44 0f 28 d8       	movapd %xmm0,%xmm11
    23e4:	66 0f 28 44 24 18    	movapd 0x18(%rsp),%xmm0
    23ea:	66 41 0f 15 c2       	unpckhpd %xmm10,%xmm0
    23ef:	66 44 0f 28 d3       	movapd %xmm3,%xmm10
    23f4:	66 41 0f 15 d9       	unpckhpd %xmm9,%xmm3
    23f9:	66 45 0f 14 d1       	unpcklpd %xmm9,%xmm10
    23fe:	66 44 0f 28 ca       	movapd %xmm2,%xmm9
    2403:	66 41 0f 15 d0       	unpckhpd %xmm8,%xmm2
    2408:	66 45 0f 14 c8       	unpcklpd %xmm8,%xmm9
    240d:	66 44 0f 28 c1       	movapd %xmm1,%xmm8
    2412:	66 0f 15 cf          	unpckhpd %xmm7,%xmm1
    2416:	66 44 0f 14 c7       	unpcklpd %xmm7,%xmm8
    241b:	66 0f 28 7c 24 08    	movapd 0x8(%rsp),%xmm7
    2421:	66 41 0f 14 fe       	unpcklpd %xmm14,%xmm7
    2426:	66 44 0f 12 74 24 10 	movlpd 0x10(%rsp),%xmm14
    242d:	44 0f 29 74 24 08    	movaps %xmm14,0x8(%rsp)
    2433:	66 45 0f 28 f5       	movapd %xmm13,%xmm14
    2438:	66 45 0f 15 ec       	unpckhpd %xmm12,%xmm13
    243d:	66 45 0f 14 f4       	unpcklpd %xmm12,%xmm14
    2442:	66 45 0f 28 e3       	movapd %xmm11,%xmm12
    2447:	66 45 0f 15 da       	unpckhpd %xmm10,%xmm11
    244c:	66 45 0f 14 e2       	unpcklpd %xmm10,%xmm12
    2451:	66 45 0f 28 d1       	movapd %xmm9,%xmm10
    2456:	66 45 0f 15 c8       	unpckhpd %xmm8,%xmm9
    245b:	66 45 0f 14 d0       	unpcklpd %xmm8,%xmm10
    2460:	66 45 0f 28 c7       	movapd %xmm15,%xmm8
    2465:	66 44 0f 15 fe       	unpckhpd %xmm6,%xmm15
    246a:	66 44 0f 14 c6       	unpcklpd %xmm6,%xmm8
    246f:	66 0f 28 f5          	movapd %xmm5,%xmm6
    2473:	66 0f 15 ec          	unpckhpd %xmm4,%xmm5
    2477:	66 0f 14 f4          	unpcklpd %xmm4,%xmm6
    247b:	66 0f 28 e0          	movapd %xmm0,%xmm4
    247f:	66 0f 15 c3          	unpckhpd %xmm3,%xmm0
    2483:	66 0f 14 e3          	unpcklpd %xmm3,%xmm4
    2487:	66 0f 28 da          	movapd %xmm2,%xmm3
    248b:	66 0f 15 d1          	unpckhpd %xmm1,%xmm2
    248f:	0f 29 54 24 18       	movaps %xmm2,0x18(%rsp)
    2494:	66 0f 14 d9          	unpcklpd %xmm1,%xmm3
    2498:	66 0f 28 cf          	movapd %xmm7,%xmm1
    249c:	66 0f 28 94 24 18 01 	movapd 0x118(%rsp),%xmm2
    24a3:	00 00 
    24a5:	66 41 0f 14 ce       	unpcklpd %xmm14,%xmm1
    24aa:	66 41 0f 15 fe       	unpckhpd %xmm14,%xmm7
    24af:	66 0f 16 94 24 f8 00 	movhpd 0xf8(%rsp),%xmm2
    24b6:	00 00 
    24b8:	66 0f 59 ca          	mulpd  %xmm2,%xmm1
    24bc:	f2 0f 10 54 24 88    	movsd  -0x78(%rsp),%xmm2
    24c2:	f2 0f 58 d1          	addsd  %xmm1,%xmm2
    24c6:	66 0f 15 c9          	unpckhpd %xmm1,%xmm1
    24ca:	f2 0f 58 d1          	addsd  %xmm1,%xmm2
    24ce:	66 41 0f 28 cc       	movapd %xmm12,%xmm1
    24d3:	66 45 0f 15 e2       	unpckhpd %xmm10,%xmm12
    24d8:	66 41 0f 14 ca       	unpcklpd %xmm10,%xmm1
    24dd:	f2 0f 11 54 24 88    	movsd  %xmm2,-0x78(%rsp)
    24e3:	66 0f 28 94 24 d8 00 	movapd 0xd8(%rsp),%xmm2
    24ea:	00 00 
    24ec:	66 0f 16 94 24 b8 00 	movhpd 0xb8(%rsp),%xmm2
    24f3:	00 00 
    24f5:	66 0f 59 ca          	mulpd  %xmm2,%xmm1
    24f9:	f2 0f 10 54 24 90    	movsd  -0x70(%rsp),%xmm2
    24ff:	f2 0f 58 d1          	addsd  %xmm1,%xmm2
    2503:	66 0f 15 c9          	unpckhpd %xmm1,%xmm1
    2507:	f2 0f 58 d1          	addsd  %xmm1,%xmm2
    250b:	66 41 0f 28 c8       	movapd %xmm8,%xmm1
    2510:	66 44 0f 15 c6       	unpckhpd %xmm6,%xmm8
    2515:	66 0f 14 ce          	unpcklpd %xmm6,%xmm1
    2519:	f2 0f 11 54 24 90    	movsd  %xmm2,-0x70(%rsp)
    251f:	66 0f 28 94 24 98 00 	movapd 0x98(%rsp),%xmm2
    2526:	00 00 
    2528:	66 0f 16 54 24 78    	movhpd 0x78(%rsp),%xmm2
    252e:	66 0f 59 ca          	mulpd  %xmm2,%xmm1
    2532:	f2 0f 10 54 24 98    	movsd  -0x68(%rsp),%xmm2
    2538:	f2 0f 58 d1          	addsd  %xmm1,%xmm2
    253c:	66 0f 15 c9          	unpckhpd %xmm1,%xmm1
    2540:	f2 0f 58 d1          	addsd  %xmm1,%xmm2
    2544:	66 0f 28 4c 24 58    	movapd 0x58(%rsp),%xmm1
    254a:	66 0f 16 4c 24 38    	movhpd 0x38(%rsp),%xmm1
    2550:	f2 0f 11 54 24 98    	movsd  %xmm2,-0x68(%rsp)
    2556:	66 0f 28 d1          	movapd %xmm1,%xmm2
    255a:	66 0f 28 cc          	movapd %xmm4,%xmm1
    255e:	66 0f 15 e3          	unpckhpd %xmm3,%xmm4
    2562:	66 0f 14 cb          	unpcklpd %xmm3,%xmm1
    2566:	66 0f 59 ca          	mulpd  %xmm2,%xmm1
    256a:	f2 0f 10 54 24 a0    	movsd  -0x60(%rsp),%xmm2
    2570:	f2 0f 58 d1          	addsd  %xmm1,%xmm2
    2574:	66 0f 15 c9          	unpckhpd %xmm1,%xmm1
    2578:	f2 0f 58 d1          	addsd  %xmm1,%xmm2
    257c:	66 0f 28 4c 24 08    	movapd 0x8(%rsp),%xmm1
    2582:	66 41 0f 14 cd       	unpcklpd %xmm13,%xmm1
    2587:	f2 0f 11 54 24 a0    	movsd  %xmm2,-0x60(%rsp)
    258d:	66 0f 28 94 24 08 01 	movapd 0x108(%rsp),%xmm2
    2594:	00 00 
    2596:	66 0f 16 94 24 e8 00 	movhpd 0xe8(%rsp),%xmm2
    259d:	00 00 
    259f:	66 0f 59 ca          	mulpd  %xmm2,%xmm1
    25a3:	f2 0f 10 54 24 a8    	movsd  -0x58(%rsp),%xmm2
    25a9:	f2 0f 58 d1          	addsd  %xmm1,%xmm2
    25ad:	66 0f 15 c9          	unpckhpd %xmm1,%xmm1
    25b1:	f2 0f 58 d1          	addsd  %xmm1,%xmm2
    25b5:	66 0f 28 8c 24 c8 00 	movapd 0xc8(%rsp),%xmm1
    25bc:	00 00 
    25be:	66 0f 16 8c 24 a8 00 	movhpd 0xa8(%rsp),%xmm1
    25c5:	00 00 
    25c7:	f2 0f 11 54 24 a8    	movsd  %xmm2,-0x58(%rsp)
    25cd:	66 0f 28 d1          	movapd %xmm1,%xmm2
    25d1:	66 41 0f 28 cb       	movapd %xmm11,%xmm1
    25d6:	66 45 0f 15 d9       	unpckhpd %xmm9,%xmm11
    25db:	66 41 0f 14 c9       	unpcklpd %xmm9,%xmm1
    25e0:	66 0f 59 ca          	mulpd  %xmm2,%xmm1
    25e4:	f2 0f 10 54 24 b0    	movsd  -0x50(%rsp),%xmm2
    25ea:	f2 0f 58 d1          	addsd  %xmm1,%xmm2
    25ee:	66 0f 15 c9          	unpckhpd %xmm1,%xmm1
    25f2:	f2 0f 58 d1          	addsd  %xmm1,%xmm2
    25f6:	66 0f 28 8c 24 88 00 	movapd 0x88(%rsp),%xmm1
    25fd:	00 00 
    25ff:	66 0f 16 4c 24 68    	movhpd 0x68(%rsp),%xmm1
    2605:	f2 0f 11 54 24 b0    	movsd  %xmm2,-0x50(%rsp)
    260b:	66 0f 28 d1          	movapd %xmm1,%xmm2
    260f:	66 41 0f 28 cf       	movapd %xmm15,%xmm1
    2614:	66 44 0f 15 fd       	unpckhpd %xmm5,%xmm15
    2619:	66 0f 14 cd          	unpcklpd %xmm5,%xmm1
    261d:	66 0f 59 ca          	mulpd  %xmm2,%xmm1
    2621:	f2 0f 10 54 24 b8    	movsd  -0x48(%rsp),%xmm2
    2627:	f2 0f 58 d1          	addsd  %xmm1,%xmm2
    262b:	66 0f 15 c9          	unpckhpd %xmm1,%xmm1
    262f:	f2 0f 58 d1          	addsd  %xmm1,%xmm2
    2633:	66 0f 28 c8          	movapd %xmm0,%xmm1
    2637:	66 0f 16 4c 24 18    	movhpd 0x18(%rsp),%xmm1
    263d:	f2 0f 11 54 24 b8    	movsd  %xmm2,-0x48(%rsp)
    2643:	66 0f 28 54 24 48    	movapd 0x48(%rsp),%xmm2
    2649:	66 0f 16 54 24 28    	movhpd 0x28(%rsp),%xmm2
    264f:	66 0f 59 ca          	mulpd  %xmm2,%xmm1
    2653:	f2 0f 10 54 24 c0    	movsd  -0x40(%rsp),%xmm2
    2659:	f2 0f 58 d1          	addsd  %xmm1,%xmm2
    265d:	66 0f 15 c9          	unpckhpd %xmm1,%xmm1
    2661:	f2 0f 58 d1          	addsd  %xmm1,%xmm2
    2665:	66 0f 28 8c 24 f8 00 	movapd 0xf8(%rsp),%xmm1
    266c:	00 00 
    266e:	66 0f 12 8c 24 20 01 	movlpd 0x120(%rsp),%xmm1
    2675:	00 00 
    2677:	66 0f 59 f9          	mulpd  %xmm1,%xmm7
    267b:	f2 0f 11 54 24 c0    	movsd  %xmm2,-0x40(%rsp)
    2681:	f2 0f 10 54 24 c8    	movsd  -0x38(%rsp),%xmm2
    2687:	f2 0f 58 d7          	addsd  %xmm7,%xmm2
    268b:	66 0f 15 ff          	unpckhpd %xmm7,%xmm7
    268f:	66 44 0f 28 f2       	movapd %xmm2,%xmm14
    2694:	f2 44 0f 58 f7       	addsd  %xmm7,%xmm14
    2699:	f2 44 0f 11 74 24 c8 	movsd  %xmm14,-0x38(%rsp)
    26a0:	f2 0f 10 54 24 d0    	movsd  -0x30(%rsp),%xmm2
    26a6:	66 0f 28 bc 24 b8 00 	movapd 0xb8(%rsp),%xmm7
    26ad:	00 00 
    26af:	66 0f 12 bc 24 e0 00 	movlpd 0xe0(%rsp),%xmm7
    26b6:	00 00 
    26b8:	f2 0f 10 5c 24 e8    	movsd  -0x18(%rsp),%xmm3
    26be:	66 0f 28 b4 24 e8 00 	movapd 0xe8(%rsp),%xmm6
    26c5:	00 00 
    26c7:	f2 0f 10 6c 24 f8    	movsd  -0x8(%rsp),%xmm5
    26cd:	66 44 0f 59 e7       	mulpd  %xmm7,%xmm12
    26d2:	66 0f 28 7c 24 78    	movapd 0x78(%rsp),%xmm7
    26d8:	f2 0f 10 0c 24       	movsd  (%rsp),%xmm1
    26dd:	66 0f 12 bc 24 a0 00 	movlpd 0xa0(%rsp),%xmm7
    26e4:	00 00 
    26e6:	66 0f 12 b4 24 10 01 	movlpd 0x110(%rsp),%xmm6
    26ed:	00 00 
    26ef:	66 44 0f 59 c7       	mulpd  %xmm7,%xmm8
    26f4:	66 0f 28 7c 24 38    	movapd 0x38(%rsp),%xmm7
    26fa:	66 0f 12 7c 24 60    	movlpd 0x60(%rsp),%xmm7
    2700:	f2 41 0f 58 d4       	addsd  %xmm12,%xmm2
    2705:	66 0f 59 e7          	mulpd  %xmm7,%xmm4
    2709:	66 45 0f 15 e4       	unpckhpd %xmm12,%xmm12
    270e:	66 44 0f 28 d2       	movapd %xmm2,%xmm10
    2713:	f2 0f 10 54 24 d8    	movsd  -0x28(%rsp),%xmm2
    2719:	f2 45 0f 58 d4       	addsd  %xmm12,%xmm10
    271e:	f2 41 0f 58 d0       	addsd  %xmm8,%xmm2
    2723:	66 45 0f 15 c0       	unpckhpd %xmm8,%xmm8
    2728:	f2 44 0f 11 54 24 d0 	movsd  %xmm10,-0x30(%rsp)
    272f:	66 44 0f 28 d2       	movapd %xmm2,%xmm10
    2734:	f2 0f 10 54 24 e0    	movsd  -0x20(%rsp),%xmm2
    273a:	f2 45 0f 58 d0       	addsd  %xmm8,%xmm10
    273f:	f2 0f 58 d4          	addsd  %xmm4,%xmm2
    2743:	66 0f 15 e4          	unpckhpd %xmm4,%xmm4
    2747:	f2 44 0f 11 54 24 d8 	movsd  %xmm10,-0x28(%rsp)
    274e:	66 0f 28 fa          	movapd %xmm2,%xmm7
    2752:	66 0f 28 54 24 08    	movapd 0x8(%rsp),%xmm2
    2758:	f2 0f 58 fc          	addsd  %xmm4,%xmm7
    275c:	66 41 0f 15 d5       	unpckhpd %xmm13,%xmm2
    2761:	66 0f 59 d6          	mulpd  %xmm6,%xmm2
    2765:	66 0f 28 b4 24 a8 00 	movapd 0xa8(%rsp),%xmm6
    276c:	00 00 
    276e:	66 0f 12 b4 24 d0 00 	movlpd 0xd0(%rsp),%xmm6
    2775:	00 00 
    2777:	f2 0f 11 7c 24 e0    	movsd  %xmm7,-0x20(%rsp)
    277d:	66 44 0f 59 de       	mulpd  %xmm6,%xmm11
    2782:	f2 0f 10 74 24 f0    	movsd  -0x10(%rsp),%xmm6
    2788:	f2 0f 58 da          	addsd  %xmm2,%xmm3
    278c:	66 0f 15 d2          	unpckhpd %xmm2,%xmm2
    2790:	f2 41 0f 58 f3       	addsd  %xmm11,%xmm6
    2795:	66 45 0f 15 db       	unpckhpd %xmm11,%xmm11
    279a:	66 0f 28 fb          	movapd %xmm3,%xmm7
    279e:	66 0f 28 5c 24 68    	movapd 0x68(%rsp),%xmm3
    27a4:	66 0f 12 9c 24 90 00 	movlpd 0x90(%rsp),%xmm3
    27ab:	00 00 
    27ad:	f2 0f 58 fa          	addsd  %xmm2,%xmm7
    27b1:	66 0f 28 54 24 18    	movapd 0x18(%rsp),%xmm2
    27b7:	66 44 0f 59 fb       	mulpd  %xmm3,%xmm15
    27bc:	66 0f 28 5c 24 28    	movapd 0x28(%rsp),%xmm3
    27c2:	f2 41 0f 58 f3       	addsd  %xmm11,%xmm6
    27c7:	66 0f 12 5c 24 50    	movlpd 0x50(%rsp),%xmm3
    27cd:	66 0f 15 c2          	unpckhpd %xmm2,%xmm0
    27d1:	66 0f 59 c3          	mulpd  %xmm3,%xmm0
    27d5:	f2 0f 11 7c 24 e8    	movsd  %xmm7,-0x18(%rsp)
    27db:	f2 0f 11 74 24 f0    	movsd  %xmm6,-0x10(%rsp)
    27e1:	f2 41 0f 58 ef       	addsd  %xmm15,%xmm5
    27e6:	66 45 0f 15 ff       	unpckhpd %xmm15,%xmm15
    27eb:	f2 0f 58 c8          	addsd  %xmm0,%xmm1
    27ef:	66 0f 15 c0          	unpckhpd %xmm0,%xmm0
    27f3:	f2 41 0f 58 ef       	addsd  %xmm15,%xmm5
    27f8:	f2 0f 58 c8          	addsd  %xmm0,%xmm1
    27fc:	f2 0f 11 6c 24 f8    	movsd  %xmm5,-0x8(%rsp)
    2802:	f2 0f 11 0c 24       	movsd  %xmm1,(%rsp)
    2807:	48 39 c1             	cmp    %rax,%rcx
    280a:	0f 85 10 f8 ff ff    	jne    2020 <dotprod_16x+0xb0>
    2810:	4c 89 c8             	mov    %r9,%rax
    2813:	48 83 e0 fe          	and    $0xfffffffffffffffe,%rax
    2817:	48 89 c2             	mov    %rax,%rdx
    281a:	48 c1 e2 04          	shl    $0x4,%rdx
    281e:	4c 39 c8             	cmp    %r9,%rax
    2821:	0f 84 84 01 00 00    	je     29ab <dotprod_16x+0xa3b>
    2827:	f2 0f 10 04 d6       	movsd  (%rsi,%rdx,8),%xmm0
    282c:	f2 0f 59 04 d7       	mulsd  (%rdi,%rdx,8),%xmm0
    2831:	48 8d 04 d5 00 00 00 	lea    0x0(,%rdx,8),%rax
    2838:	00 
    2839:	f2 0f 58 44 24 88    	addsd  -0x78(%rsp),%xmm0
    283f:	f2 0f 11 44 24 88    	movsd  %xmm0,-0x78(%rsp)
    2845:	f2 0f 10 44 06 08    	movsd  0x8(%rsi,%rax,1),%xmm0
    284b:	f2 0f 59 44 07 08    	mulsd  0x8(%rdi,%rax,1),%xmm0
    2851:	f2 0f 58 44 24 90    	addsd  -0x70(%rsp),%xmm0
    2857:	f2 0f 11 44 24 90    	movsd  %xmm0,-0x70(%rsp)
    285d:	f2 0f 10 44 06 10    	movsd  0x10(%rsi,%rax,1),%xmm0
    2863:	f2 0f 59 44 07 10    	mulsd  0x10(%rdi,%rax,1),%xmm0
    2869:	f2 0f 58 44 24 98    	addsd  -0x68(%rsp),%xmm0
    286f:	f2 0f 11 44 24 98    	movsd  %xmm0,-0x68(%rsp)
    2875:	f2 0f 10 44 06 18    	movsd  0x18(%rsi,%rax,1),%xmm0
    287b:	f2 0f 59 44 07 18    	mulsd  0x18(%rdi,%rax,1),%xmm0
    2881:	f2 0f 58 44 24 a0    	addsd  -0x60(%rsp),%xmm0
    2887:	f2 0f 11 44 24 a0    	movsd  %xmm0,-0x60(%rsp)
    288d:	f2 0f 10 44 06 20    	movsd  0x20(%rsi,%rax,1),%xmm0
    2893:	f2 0f 59 44 07 20    	mulsd  0x20(%rdi,%rax,1),%xmm0
    2899:	f2 0f 58 44 24 a8    	addsd  -0x58(%rsp),%xmm0
    289f:	f2 0f 11 44 24 a8    	movsd  %xmm0,-0x58(%rsp)
    28a5:	f2 0f 10 44 06 28    	movsd  0x28(%rsi,%rax,1),%xmm0
    28ab:	f2 0f 59 44 07 28    	mulsd  0x28(%rdi,%rax,1),%xmm0
    28b1:	f2 0f 58 44 24 b0    	addsd  -0x50(%rsp),%xmm0
    28b7:	f2 0f 11 44 24 b0    	movsd  %xmm0,-0x50(%rsp)
    28bd:	f2 0f 10 44 06 30    	movsd  0x30(%rsi,%rax,1),%xmm0
    28c3:	f2 0f 59 44 07 30    	mulsd  0x30(%rdi,%rax,1),%xmm0
    28c9:	f2 0f 58 44 24 b8    	addsd  -0x48(%rsp),%xmm0
    28cf:	f2 0f 11 44 24 b8    	movsd  %xmm0,-0x48(%rsp)
    28d5:	f2 0f 10 44 06 38    	movsd  0x38(%rsi,%rax,1),%xmm0
    28db:	f2 0f 59 44 07 38    	mulsd  0x38(%rdi,%rax,1),%xmm0
    28e1:	f2 0f 58 44 24 c0    	addsd  -0x40(%rsp),%xmm0
    28e7:	f2 0f 11 44 24 c0    	movsd  %xmm0,-0x40(%rsp)
    28ed:	f2 0f 10 44 06 40    	movsd  0x40(%rsi,%rax,1),%xmm0
    28f3:	f2 0f 59 44 07 40    	mulsd  0x40(%rdi,%rax,1),%xmm0
    28f9:	f2 0f 58 44 24 c8    	addsd  -0x38(%rsp),%xmm0
    28ff:	f2 0f 11 44 24 c8    	movsd  %xmm0,-0x38(%rsp)
    2905:	f2 0f 10 44 06 48    	movsd  0x48(%rsi,%rax,1),%xmm0
    290b:	f2 0f 59 44 07 48    	mulsd  0x48(%rdi,%rax,1),%xmm0
    2911:	f2 0f 58 44 24 d0    	addsd  -0x30(%rsp),%xmm0
    2917:	f2 0f 11 44 24 d0    	movsd  %xmm0,-0x30(%rsp)
    291d:	f2 0f 10 44 06 50    	movsd  0x50(%rsi,%rax,1),%xmm0
    2923:	f2 0f 59 44 07 50    	mulsd  0x50(%rdi,%rax,1),%xmm0
    2929:	f2 0f 58 44 24 d8    	addsd  -0x28(%rsp),%xmm0
    292f:	f2 0f 11 44 24 d8    	movsd  %xmm0,-0x28(%rsp)
    2935:	f2 0f 10 44 06 58    	movsd  0x58(%rsi,%rax,1),%xmm0
    293b:	f2 0f 59 44 07 58    	mulsd  0x58(%rdi,%rax,1),%xmm0
    2941:	f2 0f 58 44 24 e0    	addsd  -0x20(%rsp),%xmm0
    2947:	f2 0f 11 44 24 e0    	movsd  %xmm0,-0x20(%rsp)
    294d:	f2 0f 10 44 06 60    	movsd  0x60(%rsi,%rax,1),%xmm0
    2953:	f2 0f 59 44 07 60    	mulsd  0x60(%rdi,%rax,1),%xmm0
    2959:	f2 0f 58 44 24 e8    	addsd  -0x18(%rsp),%xmm0
    295f:	f2 0f 11 44 24 e8    	movsd  %xmm0,-0x18(%rsp)
    2965:	f2 0f 10 44 06 68    	movsd  0x68(%rsi,%rax,1),%xmm0
    296b:	f2 0f 59 44 07 68    	mulsd  0x68(%rdi,%rax,1),%xmm0
    2971:	f2 0f 58 44 24 f0    	addsd  -0x10(%rsp),%xmm0
    2977:	f2 0f 11 44 24 f0    	movsd  %xmm0,-0x10(%rsp)
    297d:	f2 0f 10 44 06 70    	movsd  0x70(%rsi,%rax,1),%xmm0
    2983:	f2 0f 59 44 07 70    	mulsd  0x70(%rdi,%rax,1),%xmm0
    2989:	f2 0f 58 44 24 f8    	addsd  -0x8(%rsp),%xmm0
    298f:	f2 0f 11 44 24 f8    	movsd  %xmm0,-0x8(%rsp)
    2995:	f2 0f 10 44 06 78    	movsd  0x78(%rsi,%rax,1),%xmm0
    299b:	f2 0f 59 44 07 78    	mulsd  0x78(%rdi,%rax,1),%xmm0
    29a1:	f2 0f 58 04 24       	addsd  (%rsp),%xmm0
    29a6:	f2 0f 11 04 24       	movsd  %xmm0,(%rsp)
    29ab:	4d 85 d2             	test   %r10,%r10
    29ae:	74 78                	je     2a28 <dotprod_16x+0xab8>
    29b0:	f2 0f 10 4c 24 88    	movsd  -0x78(%rsp),%xmm1
    29b6:	f2 0f 58 4c 24 90    	addsd  -0x70(%rsp),%xmm1
    29bc:	f2 0f 58 4c 24 98    	addsd  -0x68(%rsp),%xmm1
    29c2:	f2 0f 58 4c 24 a0    	addsd  -0x60(%rsp),%xmm1
    29c8:	f2 0f 58 4c 24 a8    	addsd  -0x58(%rsp),%xmm1
    29ce:	f2 0f 58 4c 24 b0    	addsd  -0x50(%rsp),%xmm1
    29d4:	f2 0f 58 4c 24 b8    	addsd  -0x48(%rsp),%xmm1
    29da:	f2 0f 58 4c 24 c0    	addsd  -0x40(%rsp),%xmm1
    29e0:	f2 0f 58 4c 24 c8    	addsd  -0x38(%rsp),%xmm1
    29e6:	f2 0f 58 4c 24 d0    	addsd  -0x30(%rsp),%xmm1
    29ec:	f2 0f 58 4c 24 d8    	addsd  -0x28(%rsp),%xmm1
    29f2:	f2 0f 58 4c 24 e0    	addsd  -0x20(%rsp),%xmm1
    29f8:	f2 0f 58 4c 24 e8    	addsd  -0x18(%rsp),%xmm1
    29fe:	f2 0f 58 4c 24 f0    	addsd  -0x10(%rsp),%xmm1
    2a04:	f2 44 0f 10 7c 24 f8 	movsd  -0x8(%rsp),%xmm15
    2a0b:	f2 0f 10 04 24       	movsd  (%rsp),%xmm0
    2a10:	48 81 c4 30 01 00 00 	add    $0x130,%rsp
    2a17:	f2 44 0f 58 f9       	addsd  %xmm1,%xmm15
    2a1c:	f2 41 0f 58 c7       	addsd  %xmm15,%xmm0
    2a21:	c3                   	retq   
    2a22:	66 0f 1f 44 00 00    	nopw   0x0(%rax,%rax,1)
    2a28:	49 83 c0 f1          	add    $0xfffffffffffffff1,%r8
    2a2c:	73 82                	jae    29b0 <dotprod_16x+0xa40>
    2a2e:	49 c1 e0 03          	shl    $0x3,%r8
    2a32:	f2 0f 10 44 24 88    	movsd  -0x78(%rsp),%xmm0
    2a38:	4a 8d 04 07          	lea    (%rdi,%r8,1),%rax
    2a3c:	4a 8d 14 06          	lea    (%rsi,%r8,1),%rdx
    2a40:	66 0f 10 1a          	movupd (%rdx),%xmm3
    2a44:	66 0f 10 08          	movupd (%rax),%xmm1
    2a48:	66 0f 10 6a 40       	movupd 0x40(%rdx),%xmm5
    2a4d:	66 0f 59 cb          	mulpd  %xmm3,%xmm1
    2a51:	66 0f 10 5a 10       	movupd 0x10(%rdx),%xmm3
    2a56:	f2 0f 58 c1          	addsd  %xmm1,%xmm0
    2a5a:	66 0f 15 c9          	unpckhpd %xmm1,%xmm1
    2a5e:	66 0f 28 d0          	movapd %xmm0,%xmm2
    2a62:	f2 0f 58 d1          	addsd  %xmm1,%xmm2
    2a66:	66 0f 10 48 10       	movupd 0x10(%rax),%xmm1
    2a6b:	66 0f 59 cb          	mulpd  %xmm3,%xmm1
    2a6f:	66 0f 10 5a 20       	movupd 0x20(%rdx),%xmm3
    2a74:	66 0f 28 c1          	movapd %xmm1,%xmm0
    2a78:	66 0f 15 c9          	unpckhpd %xmm1,%xmm1
    2a7c:	f2 0f 58 c2          	addsd  %xmm2,%xmm0
    2a80:	66 0f 28 d0          	movapd %xmm0,%xmm2
    2a84:	f2 0f 58 d1          	addsd  %xmm1,%xmm2
    2a88:	66 0f 10 48 20       	movupd 0x20(%rax),%xmm1
    2a8d:	66 0f 59 cb          	mulpd  %xmm3,%xmm1
    2a91:	66 0f 10 5a 30       	movupd 0x30(%rdx),%xmm3
    2a96:	66 0f 28 c1          	movapd %xmm1,%xmm0
    2a9a:	66 0f 15 c9          	unpckhpd %xmm1,%xmm1
    2a9e:	f2 0f 58 c2          	addsd  %xmm2,%xmm0
    2aa2:	66 0f 28 d0          	movapd %xmm0,%xmm2
    2aa6:	f2 0f 58 d1          	addsd  %xmm1,%xmm2
    2aaa:	66 0f 10 48 30       	movupd 0x30(%rax),%xmm1
    2aaf:	66 0f 59 cb          	mulpd  %xmm3,%xmm1
    2ab3:	66 0f 10 5a 50       	movupd 0x50(%rdx),%xmm3
    2ab8:	66 0f 28 c1          	movapd %xmm1,%xmm0
    2abc:	66 0f 15 c9          	unpckhpd %xmm1,%xmm1
    2ac0:	f2 0f 58 c2          	addsd  %xmm2,%xmm0
    2ac4:	66 0f 28 d0          	movapd %xmm0,%xmm2
    2ac8:	f2 0f 58 d1          	addsd  %xmm1,%xmm2
    2acc:	66 0f 10 48 40       	movupd 0x40(%rax),%xmm1
    2ad1:	66 0f 59 cd          	mulpd  %xmm5,%xmm1
    2ad5:	66 0f 28 c1          	movapd %xmm1,%xmm0
    2ad9:	66 0f 15 c9          	unpckhpd %xmm1,%xmm1
    2add:	f2 0f 58 c2          	addsd  %xmm2,%xmm0
    2ae1:	66 0f 28 d0          	movapd %xmm0,%xmm2
    2ae5:	f2 0f 58 d1          	addsd  %xmm1,%xmm2
    2ae9:	66 0f 10 48 50       	movupd 0x50(%rax),%xmm1
    2aee:	66 0f 59 cb          	mulpd  %xmm3,%xmm1
    2af2:	f2 42 0f 10 5c 06 70 	movsd  0x70(%rsi,%r8,1),%xmm3
    2af9:	f2 42 0f 59 5c 07 70 	mulsd  0x70(%rdi,%r8,1),%xmm3
    2b00:	66 0f 28 c1          	movapd %xmm1,%xmm0
    2b04:	66 0f 15 c9          	unpckhpd %xmm1,%xmm1
    2b08:	f2 0f 58 c2          	addsd  %xmm2,%xmm0
    2b0c:	66 0f 28 d0          	movapd %xmm0,%xmm2
    2b10:	66 0f 10 40 60       	movupd 0x60(%rax),%xmm0
    2b15:	f2 0f 58 d1          	addsd  %xmm1,%xmm2
    2b19:	66 0f 10 4a 60       	movupd 0x60(%rdx),%xmm1
    2b1e:	66 0f 59 c1          	mulpd  %xmm1,%xmm0
    2b22:	66 0f 28 c8          	movapd %xmm0,%xmm1
    2b26:	66 0f 15 c0          	unpckhpd %xmm0,%xmm0
    2b2a:	f2 0f 58 ca          	addsd  %xmm2,%xmm1
    2b2e:	f2 0f 58 c8          	addsd  %xmm0,%xmm1
    2b32:	f2 0f 58 d9          	addsd  %xmm1,%xmm3
    2b36:	f2 0f 11 5c 24 88    	movsd  %xmm3,-0x78(%rsp)
    2b3c:	e9 6f fe ff ff       	jmpq   29b0 <dotprod_16x+0xa40>
    2b41:	0f 1f 80 00 00 00 00 	nopl   0x0(%rax)
    2b48:	66 0f ef f6          	pxor   %xmm6,%xmm6
    2b4c:	f2 0f 11 34 24       	movsd  %xmm6,(%rsp)
    2b51:	f2 0f 11 74 24 f8    	movsd  %xmm6,-0x8(%rsp)
    2b57:	f2 0f 11 74 24 f0    	movsd  %xmm6,-0x10(%rsp)
    2b5d:	f2 0f 11 74 24 e8    	movsd  %xmm6,-0x18(%rsp)
    2b63:	f2 0f 11 74 24 e0    	movsd  %xmm6,-0x20(%rsp)
    2b69:	f2 0f 11 74 24 d8    	movsd  %xmm6,-0x28(%rsp)
    2b6f:	f2 0f 11 74 24 d0    	movsd  %xmm6,-0x30(%rsp)
    2b75:	f2 0f 11 74 24 c8    	movsd  %xmm6,-0x38(%rsp)
    2b7b:	f2 0f 11 74 24 c0    	movsd  %xmm6,-0x40(%rsp)
    2b81:	f2 0f 11 74 24 b8    	movsd  %xmm6,-0x48(%rsp)
    2b87:	f2 0f 11 74 24 b0    	movsd  %xmm6,-0x50(%rsp)
    2b8d:	f2 0f 11 74 24 a8    	movsd  %xmm6,-0x58(%rsp)
    2b93:	f2 0f 11 74 24 a0    	movsd  %xmm6,-0x60(%rsp)
    2b99:	f2 0f 11 74 24 98    	movsd  %xmm6,-0x68(%rsp)
    2b9f:	f2 0f 11 74 24 90    	movsd  %xmm6,-0x70(%rsp)
    2ba5:	f2 0f 11 74 24 88    	movsd  %xmm6,-0x78(%rsp)
    2bab:	e9 00 fe ff ff       	jmpq   29b0 <dotprod_16x+0xa40>
    2bb0:	66 0f ef e4          	pxor   %xmm4,%xmm4
    2bb4:	31 d2                	xor    %edx,%edx
    2bb6:	f2 0f 11 24 24       	movsd  %xmm4,(%rsp)
    2bbb:	f2 0f 11 64 24 f8    	movsd  %xmm4,-0x8(%rsp)
    2bc1:	f2 0f 11 64 24 f0    	movsd  %xmm4,-0x10(%rsp)
    2bc7:	f2 0f 11 64 24 e8    	movsd  %xmm4,-0x18(%rsp)
    2bcd:	f2 0f 11 64 24 e0    	movsd  %xmm4,-0x20(%rsp)
    2bd3:	f2 0f 11 64 24 d8    	movsd  %xmm4,-0x28(%rsp)
    2bd9:	f2 0f 11 64 24 d0    	movsd  %xmm4,-0x30(%rsp)
    2bdf:	f2 0f 11 64 24 c8    	movsd  %xmm4,-0x38(%rsp)
    2be5:	f2 0f 11 64 24 c0    	movsd  %xmm4,-0x40(%rsp)
    2beb:	f2 0f 11 64 24 b8    	movsd  %xmm4,-0x48(%rsp)
    2bf1:	f2 0f 11 64 24 b0    	movsd  %xmm4,-0x50(%rsp)
    2bf7:	f2 0f 11 64 24 a8    	movsd  %xmm4,-0x58(%rsp)
    2bfd:	f2 0f 11 64 24 a0    	movsd  %xmm4,-0x60(%rsp)
    2c03:	f2 0f 11 64 24 98    	movsd  %xmm4,-0x68(%rsp)
    2c09:	f2 0f 11 64 24 90    	movsd  %xmm4,-0x70(%rsp)
    2c0f:	f2 0f 11 64 24 88    	movsd  %xmm4,-0x78(%rsp)
    2c15:	e9 0d fc ff ff       	jmpq   2827 <dotprod_16x+0x8b7>
    2c1a:	66 0f 1f 44 00 00    	nopw   0x0(%rax,%rax,1)

0000000000002c20 <__libc_csu_init>:
    2c20:	f3 0f 1e fa          	endbr64 
    2c24:	41 57                	push   %r15
    2c26:	4c 8d 3d bb 21 00 00 	lea    0x21bb(%rip),%r15        # 4de8 <__frame_dummy_init_array_entry>
    2c2d:	41 56                	push   %r14
    2c2f:	49 89 d6             	mov    %rdx,%r14
    2c32:	41 55                	push   %r13
    2c34:	49 89 f5             	mov    %rsi,%r13
    2c37:	41 54                	push   %r12
    2c39:	41 89 fc             	mov    %edi,%r12d
    2c3c:	55                   	push   %rbp
    2c3d:	48 8d 2d ac 21 00 00 	lea    0x21ac(%rip),%rbp        # 4df0 <__do_global_dtors_aux_fini_array_entry>
    2c44:	53                   	push   %rbx
    2c45:	4c 29 fd             	sub    %r15,%rbp
    2c48:	48 83 ec 08          	sub    $0x8,%rsp
    2c4c:	e8 af e3 ff ff       	callq  1000 <_init>
    2c51:	48 c1 fd 03          	sar    $0x3,%rbp
    2c55:	74 1f                	je     2c76 <__libc_csu_init+0x56>
    2c57:	31 db                	xor    %ebx,%ebx
    2c59:	0f 1f 80 00 00 00 00 	nopl   0x0(%rax)
    2c60:	4c 89 f2             	mov    %r14,%rdx
    2c63:	4c 89 ee             	mov    %r13,%rsi
    2c66:	44 89 e7             	mov    %r12d,%edi
    2c69:	41 ff 14 df          	callq  *(%r15,%rbx,8)
    2c6d:	48 83 c3 01          	add    $0x1,%rbx
    2c71:	48 39 dd             	cmp    %rbx,%rbp
    2c74:	75 ea                	jne    2c60 <__libc_csu_init+0x40>
    2c76:	48 83 c4 08          	add    $0x8,%rsp
    2c7a:	5b                   	pop    %rbx
    2c7b:	5d                   	pop    %rbp
    2c7c:	41 5c                	pop    %r12
    2c7e:	41 5d                	pop    %r13
    2c80:	41 5e                	pop    %r14
    2c82:	41 5f                	pop    %r15
    2c84:	c3                   	retq   
    2c85:	66 66 2e 0f 1f 84 00 	data16 nopw %cs:0x0(%rax,%rax,1)
    2c8c:	00 00 00 00 

0000000000002c90 <__libc_csu_fini>:
    2c90:	f3 0f 1e fa          	endbr64 
    2c94:	c3                   	retq   

Déassemblage de la section .fini :

0000000000002c98 <_fini>:
    2c98:	f3 0f 1e fa          	endbr64 
    2c9c:	48 83 ec 08          	sub    $0x8,%rsp
    2ca0:	48 83 c4 08          	add    $0x8,%rsp
    2ca4:	c3                   	retq   

Déassemblage de la section .rodata :

0000000000003000 <_IO_stdin_used>:
    3000:	01 00                	add    %eax,(%rax)
    3002:	02 00                	add    (%rax),%al
    3004:	72 65                	jb     306b <_IO_stdin_used+0x6b>
    3006:	73 20                	jae    3028 <_IO_stdin_used+0x28>
    3008:	3d 20 25 6c 66       	cmp    $0x666c2520,%eax
    300d:	0a 00                	or     (%rax),%al
    300f:	72 65                	jb     3076 <_IO_stdin_used+0x76>
    3011:	73 5f                	jae    3072 <_IO_stdin_used+0x72>
    3013:	32 78 20             	xor    0x20(%rax),%bh
    3016:	3d 20 25 6c 66       	cmp    $0x666c2520,%eax
    301b:	0a 00                	or     (%rax),%al
    301d:	72 65                	jb     3084 <__GNU_EH_FRAME_HDR+0x4>
    301f:	73 5f                	jae    3080 <__GNU_EH_FRAME_HDR>
    3021:	34 78                	xor    $0x78,%al
    3023:	20 3d 20 25 6c 66    	and    %bh,0x666c2520(%rip)        # 666c5549 <_end+0x666c04f1>
    3029:	0a 00                	or     (%rax),%al
    302b:	72 65                	jb     3092 <__GNU_EH_FRAME_HDR+0x12>
    302d:	73 5f                	jae    308e <__GNU_EH_FRAME_HDR+0xe>
    302f:	38 78 20             	cmp    %bh,0x20(%rax)
    3032:	3d 20 25 6c 66       	cmp    $0x666c2520,%eax
    3037:	0a 00                	or     (%rax),%al
    3039:	72 65                	jb     30a0 <__GNU_EH_FRAME_HDR+0x20>
    303b:	73 5f                	jae    309c <__GNU_EH_FRAME_HDR+0x1c>
    303d:	31 36                	xor    %esi,(%rsi)
    303f:	78 20                	js     3061 <_IO_stdin_used+0x61>
    3041:	3d 20 25 6c 66       	cmp    $0x666c2520,%eax
    3046:	0a 00                	or     (%rax),%al
	...
    3050:	9a                   	(bad)  
    3051:	99                   	cltd   
    3052:	99                   	cltd   
    3053:	99                   	cltd   
    3054:	99                   	cltd   
    3055:	99                   	cltd   
    3056:	b9 3f 9a 99 99       	mov    $0x99999a3f,%ecx
    305b:	99                   	cltd   
    305c:	99                   	cltd   
    305d:	99                   	cltd   
    305e:	b9 3f 00 00 00       	mov    $0x3f,%ecx
    3063:	00 00                	add    %al,(%rax)
    3065:	00 f0                	add    %dh,%al
    3067:	3f                   	(bad)  
    3068:	00 00                	add    %al,(%rax)
    306a:	00 00                	add    %al,(%rax)
    306c:	00 00                	add    %al,(%rax)
    306e:	f0 3f                	lock (bad) 
    3070:	9a                   	(bad)  
    3071:	99                   	cltd   
    3072:	99                   	cltd   
    3073:	99                   	cltd   
    3074:	99                   	cltd   
    3075:	99                   	cltd   
    3076:	b9 3f 00 00 00       	mov    $0x3f,%ecx
    307b:	00 00                	add    %al,(%rax)
    307d:	00 f0                	add    %dh,%al
    307f:	3f                   	(bad)  

Déassemblage de la section .eh_frame_hdr :

0000000000003080 <__GNU_EH_FRAME_HDR>:
    3080:	01 1b                	add    %ebx,(%rbx)
    3082:	03 3b                	add    (%rbx),%edi
    3084:	64 00 00             	add    %al,%fs:(%rax)
    3087:	00 0b                	add    %cl,(%rbx)
    3089:	00 00                	add    %al,(%rax)
    308b:	00 a0 df ff ff 98    	add    %ah,-0x67000021(%rax)
    3091:	00 00                	add    %al,(%rax)
    3093:	00 00                	add    %al,(%rax)
    3095:	e0 ff                	loopne 3096 <__GNU_EH_FRAME_HDR+0x16>
    3097:	ff 44 01 00          	incl   0x0(%rcx,%rax,1)
    309b:	00 b0 e3 ff ff 80    	add    %dh,-0x7f00001d(%rax)
    30a1:	00 00                	add    %al,(%rax)
    30a3:	00 b0 e4 ff ff c0    	add    %dh,-0x3f00001c(%rax)
    30a9:	00 00                	add    %al,(%rax)
    30ab:	00 d0                	add    %dl,%al
    30ad:	e4 ff                	in     $0xff,%al
    30af:	ff d4                	callq  *%rsp
    30b1:	00 00                	add    %al,(%rax)
    30b3:	00 50 e5             	add    %dl,-0x1b(%rax)
    30b6:	ff                   	(bad)  
    30b7:	ff                   	(bad)  
    30b8:	e8 00 00 00 30       	callq  300030bd <_end+0x2fffe065>
    30bd:	e7 ff                	out    %eax,$0xff
    30bf:	ff                   	(bad)  
    30c0:	fc                   	cld    
    30c1:	00 00                	add    %al,(%rax)
    30c3:	00 80 e9 ff ff 10    	add    %al,0x10ffffe9(%rax)
    30c9:	01 00                	add    %eax,(%rax)
    30cb:	00 f0                	add    %dh,%al
    30cd:	ee                   	out    %al,(%dx)
    30ce:	ff                   	(bad)  
    30cf:	ff 24 01             	jmpq   *(%rcx,%rax,1)
    30d2:	00 00                	add    %al,(%rax)
    30d4:	a0 fb ff ff 78 01 00 	movabs 0x1000000178fffffb,%al
    30db:	00 10 
    30dd:	fc                   	cld    
    30de:	ff                   	(bad)  
    30df:	ff c0                	inc    %eax
    30e1:	01 00                	add    %eax,(%rax)
	...

Déassemblage de la section .eh_frame :

00000000000030e8 <__FRAME_END__-0x16c>:
    30e8:	14 00                	adc    $0x0,%al
    30ea:	00 00                	add    %al,(%rax)
    30ec:	00 00                	add    %al,(%rax)
    30ee:	00 00                	add    %al,(%rax)
    30f0:	01 7a 52             	add    %edi,0x52(%rdx)
    30f3:	00 01                	add    %al,(%rcx)
    30f5:	78 10                	js     3107 <__GNU_EH_FRAME_HDR+0x87>
    30f7:	01 1b                	add    %ebx,(%rbx)
    30f9:	0c 07                	or     $0x7,%al
    30fb:	08 90 01 00 00 14    	or     %dl,0x14000001(%rax)
    3101:	00 00                	add    %al,(%rax)
    3103:	00 1c 00             	add    %bl,(%rax,%rax,1)
    3106:	00 00                	add    %al,(%rax)
    3108:	28 e3                	sub    %ah,%bl
    310a:	ff                   	(bad)  
    310b:	ff 2f                	ljmp   *(%rdi)
    310d:	00 00                	add    %al,(%rax)
    310f:	00 00                	add    %al,(%rax)
    3111:	44 07                	rex.R (bad) 
    3113:	10 00                	adc    %al,(%rax)
    3115:	00 00                	add    %al,(%rax)
    3117:	00 24 00             	add    %ah,(%rax,%rax,1)
    311a:	00 00                	add    %al,(%rax)
    311c:	34 00                	xor    $0x0,%al
    311e:	00 00                	add    %al,(%rax)
    3120:	00 df                	add    %bl,%bh
    3122:	ff                   	(bad)  
    3123:	ff 60 00             	jmpq   *0x0(%rax)
    3126:	00 00                	add    %al,(%rax)
    3128:	00 0e                	add    %cl,(%rsi)
    312a:	10 46 0e             	adc    %al,0xe(%rsi)
    312d:	18 4a 0f             	sbb    %cl,0xf(%rdx)
    3130:	0b 77 08             	or     0x8(%rdi),%esi
    3133:	80 00 3f             	addb   $0x3f,(%rax)
    3136:	1a 3b                	sbb    (%rbx),%bh
    3138:	2a 33                	sub    (%rbx),%dh
    313a:	24 22                	and    $0x22,%al
    313c:	00 00                	add    %al,(%rax)
    313e:	00 00                	add    %al,(%rax)
    3140:	10 00                	adc    %al,(%rax)
    3142:	00 00                	add    %al,(%rax)
    3144:	5c                   	pop    %rsp
    3145:	00 00                	add    %al,(%rax)
    3147:	00 e8                	add    %ch,%al
    3149:	e3 ff                	jrcxz  314a <__GNU_EH_FRAME_HDR+0xca>
    314b:	ff 20                	jmpq   *(%rax)
    314d:	00 00                	add    %al,(%rax)
    314f:	00 00                	add    %al,(%rax)
    3151:	56                   	push   %rsi
    3152:	0e                   	(bad)  
    3153:	10 10                	adc    %dl,(%rax)
    3155:	00 00                	add    %al,(%rax)
    3157:	00 70 00             	add    %dh,0x0(%rax)
    315a:	00 00                	add    %al,(%rax)
    315c:	f4                   	hlt    
    315d:	e3 ff                	jrcxz  315e <__GNU_EH_FRAME_HDR+0xde>
    315f:	ff                   	(bad)  
    3160:	79 00                	jns    3162 <__GNU_EH_FRAME_HDR+0xe2>
    3162:	00 00                	add    %al,(%rax)
    3164:	00 00                	add    %al,(%rax)
    3166:	00 00                	add    %al,(%rax)
    3168:	10 00                	adc    %al,(%rax)
    316a:	00 00                	add    %al,(%rax)
    316c:	84 00                	test   %al,(%rax)
    316e:	00 00                	add    %al,(%rax)
    3170:	60                   	(bad)  
    3171:	e4 ff                	in     $0xff,%al
    3173:	ff d7                	callq  *%rdi
    3175:	01 00                	add    %eax,(%rax)
    3177:	00 00                	add    %al,(%rax)
    3179:	00 00                	add    %al,(%rax)
    317b:	00 10                	add    %dl,(%rax)
    317d:	00 00                	add    %al,(%rax)
    317f:	00 98 00 00 00 2c    	add    %bl,0x2c000000(%rax)
    3185:	e6 ff                	out    %al,$0xff
    3187:	ff 44 02 00          	incl   0x0(%rdx,%rax,1)
    318b:	00 00                	add    %al,(%rax)
    318d:	00 00                	add    %al,(%rax)
    318f:	00 10                	add    %dl,(%rax)
    3191:	00 00                	add    %al,(%rax)
    3193:	00 ac 00 00 00 68 e8 	add    %ch,-0x17980000(%rax,%rax,1)
    319a:	ff                   	(bad)  
    319b:	ff 6c 05 00          	ljmp   *0x0(%rbp,%rax,1)
    319f:	00 00                	add    %al,(%rax)
    31a1:	00 00                	add    %al,(%rax)
    31a3:	00 1c 00             	add    %bl,(%rax,%rax,1)
    31a6:	00 00                	add    %al,(%rax)
    31a8:	c0 00 00             	rolb   $0x0,(%rax)
    31ab:	00 c4                	add    %al,%ah
    31ad:	ed                   	in     (%dx),%eax
    31ae:	ff                   	(bad)  
    31af:	ff aa 0c 00 00 00    	ljmp   *0xc(%rdx)
    31b5:	4a 0e                	rex.WX (bad) 
    31b7:	b8 02 03 9d 0a       	mov    $0xa9d0302,%eax
    31bc:	0a 0e                	or     (%rsi),%cl
    31be:	08 51 0b             	or     %dl,0xb(%rcx)
    31c1:	00 00                	add    %al,(%rax)
    31c3:	00 30                	add    %dh,(%rax)
    31c5:	00 00                	add    %al,(%rax)
    31c7:	00 e0                	add    %ah,%al
    31c9:	00 00                	add    %al,(%rax)
    31cb:	00 b4 de ff ff ab 03 	add    %dh,0x3abffff(%rsi,%rbx,8)
    31d2:	00 00                	add    %al,(%rax)
    31d4:	00 42 0e             	add    %al,0xe(%rdx)
    31d7:	10 8d 02 42 0e 18    	adc    %cl,0x180e4202(%rbp)
    31dd:	8c 03                	mov    %es,(%rbx)
    31df:	41 0e                	rex.B (bad) 
    31e1:	20 86 04 44 0e 70    	and    %al,0x700e4404(%rsi)
    31e7:	03 50 03             	add    0x3(%rax),%edx
    31ea:	0a 0e                	or     (%rsi),%cl
    31ec:	20 43 0e             	and    %al,0xe(%rbx)
    31ef:	18 42 0e             	sbb    %al,0xe(%rdx)
    31f2:	10 42 0e             	adc    %al,0xe(%rdx)
    31f5:	08 48 0b             	or     %cl,0xb(%rax)
    31f8:	44 00 00             	add    %r8b,(%rax)
    31fb:	00 14 01             	add    %dl,(%rcx,%rax,1)
    31fe:	00 00                	add    %al,(%rax)
    3200:	20 fa                	and    %bh,%dl
    3202:	ff                   	(bad)  
    3203:	ff 65 00             	jmpq   *0x0(%rbp)
    3206:	00 00                	add    %al,(%rax)
    3208:	00 46 0e             	add    %al,0xe(%rsi)
    320b:	10 8f 02 49 0e 18    	adc    %cl,0x180e4902(%rdi)
    3211:	8e 03                	mov    (%rbx),%es
    3213:	45 0e                	rex.RB (bad) 
    3215:	20 8d 04 45 0e 28    	and    %cl,0x280e4504(%rbp)
    321b:	8c 05 44 0e 30 86    	mov    %es,-0x79cff1bc(%rip)        # ffffffff86304065 <_end+0xffffffff862ff00d>
    3221:	06                   	(bad)  
    3222:	48 0e                	rex.W (bad) 
    3224:	38 83 07 47 0e 40    	cmp    %al,0x400e4707(%rbx)
    322a:	6e                   	outsb  %ds:(%rsi),(%dx)
    322b:	0e                   	(bad)  
    322c:	38 41 0e             	cmp    %al,0xe(%rcx)
    322f:	30 41 0e             	xor    %al,0xe(%rcx)
    3232:	28 42 0e             	sub    %al,0xe(%rdx)
    3235:	20 42 0e             	and    %al,0xe(%rdx)
    3238:	18 42 0e             	sbb    %al,0xe(%rdx)
    323b:	10 42 0e             	adc    %al,0xe(%rdx)
    323e:	08 00                	or     %al,(%rax)
    3240:	10 00                	adc    %al,(%rax)
    3242:	00 00                	add    %al,(%rax)
    3244:	5c                   	pop    %rsp
    3245:	01 00                	add    %eax,(%rax)
    3247:	00 48 fa             	add    %cl,-0x6(%rax)
    324a:	ff                   	(bad)  
    324b:	ff 05 00 00 00 00    	incl   0x0(%rip)        # 3251 <__GNU_EH_FRAME_HDR+0x1d1>
    3251:	00 00                	add    %al,(%rax)
	...

0000000000003254 <__FRAME_END__>:
    3254:	00 00                	add    %al,(%rax)
	...

Déassemblage de la section .init_array :

0000000000004de8 <__frame_dummy_init_array_entry>:
    4de8:	20 15 00 00 00 00    	and    %dl,0x0(%rip)        # 4dee <__frame_dummy_init_array_entry+0x6>
	...

Déassemblage de la section .fini_array :

0000000000004df0 <__do_global_dtors_aux_fini_array_entry>:
    4df0:	d0 14 00             	rclb   (%rax,%rax,1)
    4df3:	00 00                	add    %al,(%rax)
    4df5:	00 00                	add    %al,(%rax)
	...

Déassemblage de la section .dynamic :

0000000000004df8 <_DYNAMIC>:
    4df8:	01 00                	add    %eax,(%rax)
    4dfa:	00 00                	add    %al,(%rax)
    4dfc:	00 00                	add    %al,(%rax)
    4dfe:	00 00                	add    %al,(%rax)
    4e00:	49 00 00             	rex.WB add %al,(%r8)
    4e03:	00 00                	add    %al,(%rax)
    4e05:	00 00                	add    %al,(%rax)
    4e07:	00 0c 00             	add    %cl,(%rax,%rax,1)
    4e0a:	00 00                	add    %al,(%rax)
    4e0c:	00 00                	add    %al,(%rax)
    4e0e:	00 00                	add    %al,(%rax)
    4e10:	00 10                	add    %dl,(%rax)
    4e12:	00 00                	add    %al,(%rax)
    4e14:	00 00                	add    %al,(%rax)
    4e16:	00 00                	add    %al,(%rax)
    4e18:	0d 00 00 00 00       	or     $0x0,%eax
    4e1d:	00 00                	add    %al,(%rax)
    4e1f:	00 98 2c 00 00 00    	add    %bl,0x2c(%rax)
    4e25:	00 00                	add    %al,(%rax)
    4e27:	00 19                	add    %bl,(%rcx)
    4e29:	00 00                	add    %al,(%rax)
    4e2b:	00 00                	add    %al,(%rax)
    4e2d:	00 00                	add    %al,(%rax)
    4e2f:	00 e8                	add    %ch,%al
    4e31:	4d 00 00             	rex.WRB add %r8b,(%r8)
    4e34:	00 00                	add    %al,(%rax)
    4e36:	00 00                	add    %al,(%rax)
    4e38:	1b 00                	sbb    (%rax),%eax
    4e3a:	00 00                	add    %al,(%rax)
    4e3c:	00 00                	add    %al,(%rax)
    4e3e:	00 00                	add    %al,(%rax)
    4e40:	08 00                	or     %al,(%rax)
    4e42:	00 00                	add    %al,(%rax)
    4e44:	00 00                	add    %al,(%rax)
    4e46:	00 00                	add    %al,(%rax)
    4e48:	1a 00                	sbb    (%rax),%al
    4e4a:	00 00                	add    %al,(%rax)
    4e4c:	00 00                	add    %al,(%rax)
    4e4e:	00 00                	add    %al,(%rax)
    4e50:	f0 4d 00 00          	lock rex.WRB add %r8b,(%r8)
    4e54:	00 00                	add    %al,(%rax)
    4e56:	00 00                	add    %al,(%rax)
    4e58:	1c 00                	sbb    $0x0,%al
    4e5a:	00 00                	add    %al,(%rax)
    4e5c:	00 00                	add    %al,(%rax)
    4e5e:	00 00                	add    %al,(%rax)
    4e60:	08 00                	or     %al,(%rax)
    4e62:	00 00                	add    %al,(%rax)
    4e64:	00 00                	add    %al,(%rax)
    4e66:	00 00                	add    %al,(%rax)
    4e68:	f5                   	cmc    
    4e69:	fe                   	(bad)  
    4e6a:	ff 6f 00             	ljmp   *0x0(%rdi)
    4e6d:	00 00                	add    %al,(%rax)
    4e6f:	00 08                	add    %cl,(%rax)
    4e71:	03 00                	add    (%rax),%eax
    4e73:	00 00                	add    %al,(%rax)
    4e75:	00 00                	add    %al,(%rax)
    4e77:	00 05 00 00 00 00    	add    %al,0x0(%rip)        # 4e7d <_DYNAMIC+0x85>
    4e7d:	00 00                	add    %al,(%rax)
    4e7f:	00 30                	add    %dh,(%rax)
    4e81:	04 00                	add    $0x0,%al
    4e83:	00 00                	add    %al,(%rax)
    4e85:	00 00                	add    %al,(%rax)
    4e87:	00 06                	add    %al,(%rsi)
    4e89:	00 00                	add    %al,(%rax)
    4e8b:	00 00                	add    %al,(%rax)
    4e8d:	00 00                	add    %al,(%rax)
    4e8f:	00 28                	add    %ch,(%rax)
    4e91:	03 00                	add    (%rax),%eax
    4e93:	00 00                	add    %al,(%rax)
    4e95:	00 00                	add    %al,(%rax)
    4e97:	00 0a                	add    %cl,(%rdx)
    4e99:	00 00                	add    %al,(%rax)
    4e9b:	00 00                	add    %al,(%rax)
    4e9d:	00 00                	add    %al,(%rax)
    4e9f:	00 af 00 00 00 00    	add    %ch,0x0(%rdi)
    4ea5:	00 00                	add    %al,(%rax)
    4ea7:	00 0b                	add    %cl,(%rbx)
    4ea9:	00 00                	add    %al,(%rax)
    4eab:	00 00                	add    %al,(%rax)
    4ead:	00 00                	add    %al,(%rax)
    4eaf:	00 18                	add    %bl,(%rax)
    4eb1:	00 00                	add    %al,(%rax)
    4eb3:	00 00                	add    %al,(%rax)
    4eb5:	00 00                	add    %al,(%rax)
    4eb7:	00 15 00 00 00 00    	add    %dl,0x0(%rip)        # 4ebd <_DYNAMIC+0xc5>
	...
    4ec5:	00 00                	add    %al,(%rax)
    4ec7:	00 03                	add    %al,(%rbx)
	...
    4ed1:	50                   	push   %rax
    4ed2:	00 00                	add    %al,(%rax)
    4ed4:	00 00                	add    %al,(%rax)
    4ed6:	00 00                	add    %al,(%rax)
    4ed8:	02 00                	add    (%rax),%al
    4eda:	00 00                	add    %al,(%rax)
    4edc:	00 00                	add    %al,(%rax)
    4ede:	00 00                	add    %al,(%rax)
    4ee0:	78 00                	js     4ee2 <_DYNAMIC+0xea>
    4ee2:	00 00                	add    %al,(%rax)
    4ee4:	00 00                	add    %al,(%rax)
    4ee6:	00 00                	add    %al,(%rax)
    4ee8:	14 00                	adc    $0x0,%al
    4eea:	00 00                	add    %al,(%rax)
    4eec:	00 00                	add    %al,(%rax)
    4eee:	00 00                	add    %al,(%rax)
    4ef0:	07                   	(bad)  
    4ef1:	00 00                	add    %al,(%rax)
    4ef3:	00 00                	add    %al,(%rax)
    4ef5:	00 00                	add    %al,(%rax)
    4ef7:	00 17                	add    %dl,(%rdi)
    4ef9:	00 00                	add    %al,(%rax)
    4efb:	00 00                	add    %al,(%rax)
    4efd:	00 00                	add    %al,(%rax)
    4eff:	00 e8                	add    %ch,%al
    4f01:	05 00 00 00 00       	add    $0x0,%eax
    4f06:	00 00                	add    %al,(%rax)
    4f08:	07                   	(bad)  
    4f09:	00 00                	add    %al,(%rax)
    4f0b:	00 00                	add    %al,(%rax)
    4f0d:	00 00                	add    %al,(%rax)
    4f0f:	00 28                	add    %ch,(%rax)
    4f11:	05 00 00 00 00       	add    $0x0,%eax
    4f16:	00 00                	add    %al,(%rax)
    4f18:	08 00                	or     %al,(%rax)
    4f1a:	00 00                	add    %al,(%rax)
    4f1c:	00 00                	add    %al,(%rax)
    4f1e:	00 00                	add    %al,(%rax)
    4f20:	c0 00 00             	rolb   $0x0,(%rax)
    4f23:	00 00                	add    %al,(%rax)
    4f25:	00 00                	add    %al,(%rax)
    4f27:	00 09                	add    %cl,(%rcx)
    4f29:	00 00                	add    %al,(%rax)
    4f2b:	00 00                	add    %al,(%rax)
    4f2d:	00 00                	add    %al,(%rax)
    4f2f:	00 18                	add    %bl,(%rax)
    4f31:	00 00                	add    %al,(%rax)
    4f33:	00 00                	add    %al,(%rax)
    4f35:	00 00                	add    %al,(%rax)
    4f37:	00 fb                	add    %bh,%bl
    4f39:	ff                   	(bad)  
    4f3a:	ff 6f 00             	ljmp   *0x0(%rdi)
    4f3d:	00 00                	add    %al,(%rax)
    4f3f:	00 00                	add    %al,(%rax)
    4f41:	00 00                	add    %al,(%rax)
    4f43:	08 00                	or     %al,(%rax)
    4f45:	00 00                	add    %al,(%rax)
    4f47:	00 fe                	add    %bh,%dh
    4f49:	ff                   	(bad)  
    4f4a:	ff 6f 00             	ljmp   *0x0(%rdi)
    4f4d:	00 00                	add    %al,(%rax)
    4f4f:	00 f8                	add    %bh,%al
    4f51:	04 00                	add    $0x0,%al
    4f53:	00 00                	add    %al,(%rax)
    4f55:	00 00                	add    %al,(%rax)
    4f57:	00 ff                	add    %bh,%bh
    4f59:	ff                   	(bad)  
    4f5a:	ff 6f 00             	ljmp   *0x0(%rdi)
    4f5d:	00 00                	add    %al,(%rax)
    4f5f:	00 01                	add    %al,(%rcx)
    4f61:	00 00                	add    %al,(%rax)
    4f63:	00 00                	add    %al,(%rax)
    4f65:	00 00                	add    %al,(%rax)
    4f67:	00 f0                	add    %dh,%al
    4f69:	ff                   	(bad)  
    4f6a:	ff 6f 00             	ljmp   *0x0(%rdi)
    4f6d:	00 00                	add    %al,(%rax)
    4f6f:	00 e0                	add    %ah,%al
    4f71:	04 00                	add    $0x0,%al
    4f73:	00 00                	add    %al,(%rax)
    4f75:	00 00                	add    %al,(%rax)
    4f77:	00 f9                	add    %bh,%cl
    4f79:	ff                   	(bad)  
    4f7a:	ff 6f 00             	ljmp   *0x0(%rdi)
    4f7d:	00 00                	add    %al,(%rax)
    4f7f:	00 03                	add    %al,(%rbx)
	...

Déassemblage de la section .got :

0000000000004fd8 <.got>:
	...

Déassemblage de la section .got.plt :

0000000000005000 <_GLOBAL_OFFSET_TABLE_>:
    5000:	f8                   	clc    
    5001:	4d 00 00             	rex.WRB add %r8b,(%r8)
	...
    5018:	36 10 00             	adc    %al,%ss:(%rax)
    501b:	00 00                	add    %al,(%rax)
    501d:	00 00                	add    %al,(%rax)
    501f:	00 46 10             	add    %al,0x10(%rsi)
    5022:	00 00                	add    %al,(%rax)
    5024:	00 00                	add    %al,(%rax)
    5026:	00 00                	add    %al,(%rax)
    5028:	56                   	push   %rsi
    5029:	10 00                	adc    %al,(%rax)
    502b:	00 00                	add    %al,(%rax)
    502d:	00 00                	add    %al,(%rax)
    502f:	00 66 10             	add    %ah,0x10(%rsi)
    5032:	00 00                	add    %al,(%rax)
    5034:	00 00                	add    %al,(%rax)
    5036:	00 00                	add    %al,(%rax)
    5038:	76 10                	jbe    504a <__dso_handle+0x2>
    503a:	00 00                	add    %al,(%rax)
    503c:	00 00                	add    %al,(%rax)
	...

Déassemblage de la section .data :

0000000000005040 <__data_start>:
	...

0000000000005048 <__dso_handle>:
    5048:	48 50                	rex.W push %rax
    504a:	00 00                	add    %al,(%rax)
    504c:	00 00                	add    %al,(%rax)
	...

Déassemblage de la section .bss :

0000000000005050 <completed.0>:
	...

Déassemblage de la section .comment :

0000000000000000 <.comment>:
   0:	47                   	rex.RXB
   1:	43                   	rex.XB
   2:	43 3a 20             	rex.XB cmp (%r8),%spl
   5:	28 47 4e             	sub    %al,0x4e(%rdi)
   8:	55                   	push   %rbp
   9:	29 20                	sub    %esp,(%rax)
   b:	31 30                	xor    %esi,(%rax)
   d:	2e 32 2e             	xor    %cs:(%rsi),%ch
  10:	30 00                	xor    %al,(%rax)

Déassemblage de la section .debug_aranges :

0000000000000000 <.debug_aranges>:
   0:	3c 00                	cmp    $0x0,%al
   2:	00 00                	add    %al,(%rax)
   4:	02 00                	add    (%rax),%al
   6:	00 00                	add    %al,(%rax)
   8:	00 00                	add    %al,(%rax)
   a:	08 00                	or     %al,(%rax)
   c:	00 00                	add    %al,(%rax)
   e:	00 00                	add    %al,(%rax)
  10:	30 15 00 00 00 00    	xor    %dl,0x0(%rip)        # 16 <__abi_tag-0x2d2>
  16:	00 00                	add    %al,(%rax)
  18:	ea                   	(bad)  
  19:	16                   	(bad)  
  1a:	00 00                	add    %al,(%rax)
  1c:	00 00                	add    %al,(%rax)
  1e:	00 00                	add    %al,(%rax)
  20:	80 10 00             	adcb   $0x0,(%rax)
  23:	00 00                	add    %al,(%rax)
  25:	00 00                	add    %al,(%rax)
  27:	00 ab 03 00 00 00    	add    %ch,0x3(%rbx)
	...

Déassemblage de la section .debug_info :

0000000000000000 <.debug_info>:
   0:	0c 0c                	or     $0xc,%al
   2:	00 00                	add    %al,(%rax)
   4:	04 00                	add    $0x0,%al
   6:	00 00                	add    %al,(%rax)
   8:	00 00                	add    %al,(%rax)
   a:	08 01                	or     %al,(%rcx)
   c:	98                   	cwtl   
   d:	16                   	(bad)  
   e:	00 00                	add    %al,(%rax)
  10:	0c 46                	or     $0x46,%al
  12:	05 00 00 87 18       	add    $0x18870000,%eax
  17:	00 00                	add    %al,(%rax)
  19:	90                   	nop
  1a:	03 00                	add    (%rax),%eax
	...
  2c:	00 02                	add    %al,(%rdx)
  2e:	08 04 a8             	or     %al,(%rax,%rbp,4)
  31:	31 00                	xor    %eax,(%rax)
  33:	00 02                	add    %al,(%rdx)
  35:	08 07                	or     %al,(%rdi)
  37:	2e 0f 00 00          	sldt   %cs:(%rax)
  3b:	03 04 05 69 6e 74 00 	add    0x746e69(,%rax,1),%eax
  42:	02 08                	add    (%rax),%cl
  44:	05 ab 49 00 00       	add    $0x49ab,%eax
  49:	02 08                	add    (%rax),%cl
  4b:	05 26 30 00 00       	add    $0x3026,%eax
  50:	02 01                	add    (%rcx),%al
  52:	08 cf                	or     %cl,%bh
  54:	39 00                	cmp    %eax,(%rax)
  56:	00 02                	add    %al,(%rdx)
  58:	02 07                	add    (%rdi),%al
  5a:	99                   	cltd   
  5b:	47 00 00             	rex.RXB add %r8b,(%r8)
  5e:	02 04 07             	add    (%rdi,%rax,1),%al
  61:	5d                   	pop    %rbp
  62:	08 00                	or     %al,(%rax)
  64:	00 02                	add    %al,(%rdx)
  66:	01 06                	add    %eax,(%rsi)
  68:	21 04 00             	and    %eax,(%rax,%rax,1)
  6b:	00 02                	add    %al,(%rdx)
  6d:	02 05 0d 56 00 00    	add    0x560d(%rip),%al        # 5680 <_end+0x628>
  73:	04 08                	add    $0x8,%al
  75:	79 00                	jns    77 <__abi_tag-0x271>
  77:	00 00                	add    %al,(%rax)
  79:	02 01                	add    (%rcx),%al
  7b:	06                   	(bad)  
  7c:	28 04 00             	sub    %al,(%rax,%rax,1)
  7f:	00 02                	add    %al,(%rdx)
  81:	08 07                	or     %al,(%rdi)
  83:	d2 45 00             	rolb   %cl,0x0(%rbp)
  86:	00 05 07 0f 00 00    	add    %al,0xf07(%rip)        # f93 <__abi_tag+0xcab>
  8c:	01 9e 05 3b 00 00    	add    %ebx,0x3b05(%rsi)
  92:	00 80 10 00 00 00    	add    %al,0x10(%rax)
  98:	00 00                	add    %al,(%rax)
  9a:	00 ab 03 00 00 00    	add    %ch,0x3(%rbx)
  a0:	00 00                	add    %al,(%rax)
  a2:	00 01                	add    %al,(%rcx)
  a4:	9c                   	pushfq 
  a5:	8e 06                	mov    (%rsi),%es
  a7:	00 00                	add    %al,(%rax)
  a9:	06                   	(bad)  
  aa:	b6 2d                	mov    $0x2d,%dh
  ac:	00 00                	add    %al,(%rax)
  ae:	01 9e 0e 3b 00 00    	add    %ebx,0x3b0e(%rsi)
  b4:	00 04 00             	add    %al,(%rax,%rax,1)
  b7:	00 00                	add    %al,(%rax)
  b9:	00 00                	add    %al,(%rax)
  bb:	00 00                	add    %al,(%rax)
  bd:	06                   	(bad)  
  be:	4c                   	rex.WR
  bf:	2e 00 00             	add    %al,%cs:(%rax)
  c2:	01 9e 1b 8e 06 00    	add    %ebx,0x68e1b(%rsi)
  c8:	00 41 00             	add    %al,0x0(%rcx)
  cb:	00 00                	add    %al,(%rax)
  cd:	3d 00 00 00 07       	cmp    $0x7000000,%eax
  d2:	6e                   	outsb  %ds:(%rsi),(%dx)
  d3:	00 01                	add    %al,(%rcx)
  d5:	a3 16 80 00 00 00 82 	movabs %eax,0x820000008016
  dc:	00 00 
  de:	00 7a 00             	add    %bh,0x0(%rdx)
  e1:	00 00                	add    %al,(%rax)
  e3:	07                   	(bad)  
  e4:	61                   	(bad)  
  e5:	00 01                	add    %al,(%rcx)
  e7:	a6                   	cmpsb  %es:(%rdi),%ds:(%rsi)
  e8:	0b 94 06 00 00 e6 00 	or     0xe60000(%rsi,%rax,1),%edx
  ef:	00 00                	add    %al,(%rax)
  f1:	e0 00                	loopne f3 <__abi_tag-0x1f5>
  f3:	00 00                	add    %al,(%rax)
  f5:	07                   	(bad)  
  f6:	62                   	(bad)  
  f7:	00 01                	add    %al,(%rcx)
  f9:	a7                   	cmpsl  %es:(%rdi),%ds:(%rsi)
  fa:	0b 94 06 00 00 39 01 	or     0x1390000(%rsi,%rax,1),%edx
 101:	00 00                	add    %al,(%rax)
 103:	2f                   	(bad)  
 104:	01 00                	add    %eax,(%rax)
 106:	00 07                	add    %al,(%rdi)
 108:	72 65                	jb     16f <__abi_tag-0x179>
 10a:	73 00                	jae    10c <__abi_tag-0x1dc>
 10c:	01 ad 0a 2d 00 00    	add    %ebp,0x2d0a(%rbp)
 112:	00 b0 01 00 00 a8    	add    %dh,-0x57ffffff(%rax)
 118:	01 00                	add    %eax,(%rax)
 11a:	00 08                	add    %cl,(%rax)
 11c:	2b 4e 00             	sub    0x0(%rsi),%ecx
 11f:	00 01                	add    %al,(%rcx)
 121:	ae                   	scas   %es:(%rdi),%al
 122:	0a 2d 00 00 00 18    	or     0x18000000(%rip),%ch        # 18000128 <_end+0x17ffb0d0>
 128:	02 00                	add    (%rax),%al
 12a:	00 10                	add    %dl,(%rax)
 12c:	02 00                	add    (%rax),%al
 12e:	00 08                	add    %cl,(%rax)
 130:	67 55                	addr32 push %rbp
 132:	00 00                	add    %al,(%rax)
 134:	01 af 0a 2d 00 00    	add    %ebp,0x2d0a(%rdi)
 13a:	00 80 02 00 00 78    	add    %al,0x78000002(%rax)
 140:	02 00                	add    (%rax),%al
 142:	00 08                	add    %cl,(%rax)
 144:	91                   	xchg   %eax,%ecx
 145:	62                   	(bad)  
 146:	00 00                	add    %al,(%rax)
 148:	01 b0 0a 2d 00 00    	add    %esi,0x2d0a(%rax)
 14e:	00 e8                	add    %ch,%al
 150:	02 00                	add    (%rax),%al
 152:	00 e0                	add    %ah,%al
 154:	02 00                	add    (%rax),%al
 156:	00 08                	add    %cl,(%rax)
 158:	27                   	(bad)  
 159:	11 00                	adc    %eax,(%rax)
 15b:	00 01                	add    %al,(%rcx)
 15d:	b1 0a                	mov    $0xa,%cl
 15f:	2d 00 00 00 50       	sub    $0x50000000,%eax
 164:	03 00                	add    (%rax),%eax
 166:	00 48 03             	add    %cl,0x3(%rax)
 169:	00 00                	add    %al,(%rax)
 16b:	07                   	(bad)  
 16c:	63 00                	movsxd (%rax),%eax
 16e:	01 c2                	add    %eax,%edx
 170:	0b 94 06 00 00 b4 03 	or     0x3b40000(%rsi,%rax,1),%edx
 177:	00 00                	add    %al,(%rax)
 179:	b0 03                	mov    $0x3,%al
 17b:	00 00                	add    %al,(%rax)
 17d:	07                   	(bad)  
 17e:	64 00 01             	add    %al,%fs:(%rcx)
 181:	c3                   	retq   
 182:	0b 94 06 00 00 ee 03 	or     0x3ee0000(%rsi,%rax,1),%edx
 189:	00 00                	add    %al,(%rax)
 18b:	ea                   	(bad)  
 18c:	03 00                	add    (%rax),%eax
 18e:	00 09                	add    %cl,(%rcx)
 190:	e4 09                	in     $0x9,%al
 192:	00 00                	add    %al,(%rax)
 194:	b9 10 00 00 00       	mov    $0x10,%ecx
 199:	00 00                	add    %al,(%rax)
 19b:	00 01                	add    %al,(%rcx)
 19d:	00 a0 02 00 00 01    	add    %ah,0x1000002(%rax)
 1a3:	aa                   	stos   %al,%es:(%rdi)
 1a4:	03 e8                	add    %eax,%ebp
 1a6:	01 00                	add    %eax,(%rax)
 1a8:	00 0a                	add    %cl,(%rdx)
 1aa:	05 0a 00 00 28       	add    $0x2800000a,%eax
 1af:	04 00                	add    $0x0,%al
 1b1:	00 24 04             	add    %ah,(%rsp,%rax,1)
 1b4:	00 00                	add    %al,(%rax)
 1b6:	0a fb                	or     %bl,%bh
 1b8:	09 00                	or     %eax,(%rax)
 1ba:	00 68 04             	add    %ch,0x4(%rax)
 1bd:	00 00                	add    %al,(%rax)
 1bf:	5e                   	pop    %rsi
 1c0:	04 00                	add    $0x0,%al
 1c2:	00 0a                	add    %cl,(%rdx)
 1c4:	f1                   	icebp  
 1c5:	09 00                	or     %eax,(%rax)
 1c7:	00 db                	add    %bl,%bl
 1c9:	04 00                	add    $0x0,%al
 1cb:	00 d7                	add    %dl,%bh
 1cd:	04 00                	add    $0x0,%al
 1cf:	00 0b                	add    %cl,(%rbx)
 1d1:	0f 0a                	(bad)  
 1d3:	00 00                	add    %al,(%rax)
 1d5:	b0 02                	mov    $0x2,%al
 1d7:	00 00                	add    %al,(%rax)
 1d9:	0c 10                	or     $0x10,%al
 1db:	0a 00                	or     (%rax),%al
 1dd:	00 15 05 00 00 11    	add    %dl,0x11000005(%rip)        # 110001e8 <_end+0x10ffb190>
 1e3:	05 00 00 00 00       	add    $0x0,%eax
 1e8:	0d 9e 09 00 00       	or     $0x99e,%eax
 1ed:	f0 02 00             	lock add (%rax),%al
 1f0:	00 01                	add    %al,(%rcx)
 1f2:	ad                   	lods   %ds:(%rsi),%eax
 1f3:	10 36                	adc    %dh,(%rsi)
 1f5:	02 00                	add    (%rax),%al
 1f7:	00 0e                	add    %cl,(%rsi)
 1f9:	c3                   	retq   
 1fa:	09 00                	or     %eax,(%rax)
 1fc:	00 0e                	add    %cl,(%rsi)
 1fe:	b9 09 00 00 0e       	mov    $0xe000009,%ecx
 203:	af                   	scas   %es:(%rdi),%eax
 204:	09 00                	or     %eax,(%rax)
 206:	00 0f                	add    %cl,(%rdi)
 208:	f0 02 00             	lock add (%rax),%al
 20b:	00 0c cd 09 00 00 51 	add    %cl,0x51000009(,%rcx,8)
 212:	05 00 00 4d 05       	add    $0x54d0000,%eax
 217:	00 00                	add    %al,(%rax)
 219:	10 d7                	adc    %dl,%bh
 21b:	09 00                	or     %eax,(%rax)
 21d:	00 48 11             	add    %cl,0x11(%rax)
 220:	00 00                	add    %al,(%rax)
 222:	00 00                	add    %al,(%rax)
 224:	00 00                	add    %al,(%rax)
 226:	3e 00 00             	add    %al,%ds:(%rax)
 229:	00 00                	add    %al,(%rax)
 22b:	00 00                	add    %al,(%rax)
 22d:	00 11                	add    %dl,(%rcx)
 22f:	d8 09                	fmuls  (%rcx)
 231:	00 00                	add    %al,(%rax)
 233:	00 00                	add    %al,(%rax)
 235:	00 09                	add    %cl,(%rcx)
 237:	e4 09                	in     $0x9,%al
 239:	00 00                	add    %al,(%rax)
 23b:	a7                   	cmpsl  %es:(%rdi),%ds:(%rsi)
 23c:	12 00                	adc    (%rax),%al
 23e:	00 00                	add    %al,(%rax)
 240:	00 00                	add    %al,(%rax)
 242:	00 01                	add    %al,(%rcx)
 244:	00 30                	add    %dh,(%rax)
 246:	03 00                	add    (%rax),%eax
 248:	00 01                	add    %al,(%rcx)
 24a:	c6 03 8f             	movb   $0x8f,(%rbx)
 24d:	02 00                	add    (%rax),%al
 24f:	00 0a                	add    %cl,(%rdx)
 251:	05 0a 00 00 89       	add    $0x8900000a,%eax
 256:	05 00 00 87 05       	add    $0x5870000,%eax
 25b:	00 00                	add    %al,(%rax)
 25d:	0a fb                	or     %bl,%bh
 25f:	09 00                	or     %eax,(%rax)
 261:	00 b2 05 00 00 ae    	add    %dh,-0x51fffffb(%rdx)
 267:	05 00 00 0a f1       	add    $0xf10a0000,%eax
 26c:	09 00                	or     %eax,(%rax)
 26e:	00 ea                	add    %ch,%dl
 270:	05 00 00 e8 05       	add    $0x5e80000,%eax
 275:	00 00                	add    %al,(%rax)
 277:	0b 0f                	or     (%rdi),%ecx
 279:	0a 00                	or     (%rax),%al
 27b:	00 30                	add    %dh,(%rax)
 27d:	03 00                	add    (%rax),%eax
 27f:	00 0c 10             	add    %cl,(%rax,%rdx,1)
 282:	0a 00                	or     (%rax),%al
 284:	00 0f                	add    %cl,(%rdi)
 286:	06                   	(bad)  
 287:	00 00                	add    %al,(%rax)
 289:	0d 06 00 00 00       	or     $0x6,%eax
 28e:	00 0d 9e 09 00 00    	add    %cl,0x99e(%rip)        # c32 <__abi_tag+0x94a>
 294:	60                   	(bad)  
 295:	03 00                	add    (%rax),%eax
 297:	00 01                	add    %al,(%rcx)
 299:	c9                   	leaveq 
 29a:	09 dd                	or     %ebx,%ebp
 29c:	02 00                	add    (%rax),%al
 29e:	00 0e                	add    %cl,(%rsi)
 2a0:	c3                   	retq   
 2a1:	09 00                	or     %eax,(%rax)
 2a3:	00 0e                	add    %cl,(%rsi)
 2a5:	b9 09 00 00 0e       	mov    $0xe000009,%ecx
 2aa:	af                   	scas   %es:(%rdi),%eax
 2ab:	09 00                	or     %eax,(%rax)
 2ad:	00 0f                	add    %cl,(%rdi)
 2af:	60                   	(bad)  
 2b0:	03 00                	add    (%rax),%eax
 2b2:	00 0c cd 09 00 00 37 	add    %cl,0x37000009(,%rcx,8)
 2b9:	06                   	(bad)  
 2ba:	00 00                	add    %al,(%rax)
 2bc:	33 06                	xor    (%rsi),%eax
 2be:	00 00                	add    %al,(%rax)
 2c0:	10 d7                	adc    %dl,%bh
 2c2:	09 00                	or     %eax,(%rax)
 2c4:	00 d0                	add    %dl,%al
 2c6:	12 00                	adc    (%rax),%al
 2c8:	00 00                	add    %al,(%rax)
 2ca:	00 00                	add    %al,(%rax)
 2cc:	00 24 00             	add    %ah,(%rax,%rax,1)
 2cf:	00 00                	add    %al,(%rax)
 2d1:	00 00                	add    %al,(%rax)
 2d3:	00 00                	add    %al,(%rax)
 2d5:	11 d8                	adc    %ebx,%eax
 2d7:	09 00                	or     %eax,(%rax)
 2d9:	00 00                	add    %al,(%rax)
 2db:	00 00                	add    %al,(%rax)
 2dd:	12 8e 10 00 00 00    	adc    0x10(%rsi),%cl
 2e3:	00 00                	add    %al,(%rax)
 2e5:	00 1c 0a             	add    %bl,(%rdx,%rcx,1)
 2e8:	00 00                	add    %al,(%rax)
 2ea:	fd                   	std    
 2eb:	02 00                	add    (%rax),%al
 2ed:	00 13                	add    %dl,(%rbx)
 2ef:	01 55 03             	add    %edx,0x3(%rbp)
 2f2:	f3 01 55 13          	repz add %edx,0x13(%rbp)
 2f6:	01 54 03 f3          	add    %edx,-0xd(%rbx,%rax,1)
 2fa:	01 54 00 12          	add    %edx,0x12(%rax,%rax,1)
 2fe:	a6                   	cmpsb  %es:(%rdi),%ds:(%rsi)
 2ff:	10 00                	adc    %al,(%rax)
 301:	00 00                	add    %al,(%rax)
 303:	00 00                	add    %al,(%rax)
 305:	00 cf                	add    %cl,%bh
 307:	0b 00                	or     (%rax),%eax
 309:	00 1b                	add    %bl,(%rbx)
 30b:	03 00                	add    (%rax),%eax
 30d:	00 13                	add    %dl,(%rbx)
 30f:	01 55 02             	add    %edx,0x2(%rbp)
 312:	08 40 13             	or     %al,0x13(%rax)
 315:	01 54 02 76          	add    %edx,0x76(%rdx,%rax,1)
 319:	00 00                	add    %al,(%rax)
 31b:	12 b6 10 00 00 00    	adc    0x10(%rsi),%dh
 321:	00 00                	add    %al,(%rax)
 323:	00 cf                	add    %cl,%bh
 325:	0b 00                	or     (%rax),%eax
 327:	00 39                	add    %bh,(%rcx)
 329:	03 00                	add    (%rax),%eax
 32b:	00 13                	add    %dl,(%rbx)
 32d:	01 55 02             	add    %edx,0x2(%rbp)
 330:	08 40 13             	or     %al,0x13(%rax)
 333:	01 54 02 76          	add    %edx,0x76(%rdx,%rax,1)
 337:	00 00                	add    %al,(%rax)
 339:	12 aa 11 00 00 00    	adc    0x11(%rdx),%ch
 33f:	00 00                	add    %al,(%rax)
 341:	00 2a                	add    %ch,(%rdx)
 343:	09 00                	or     %eax,(%rax)
 345:	00 5d 03             	add    %bl,0x3(%rbp)
 348:	00 00                	add    %al,(%rax)
 34a:	13 01                	adc    (%rcx),%eax
 34c:	55                   	push   %rbp
 34d:	02 75 00             	add    0x0(%rbp),%dh
 350:	13 01                	adc    (%rcx),%eax
 352:	54                   	push   %rsp
 353:	02 74 00 13          	add    0x13(%rax,%rax,1),%dh
 357:	01 51 02             	add    %edx,0x2(%rcx)
 35a:	7d 00                	jge    35c <__abi_tag+0x74>
 35c:	00 12                	add    %dl,(%rdx)
 35e:	b8 11 00 00 00       	mov    $0x11,%eax
 363:	00 00                	add    %al,(%rax)
 365:	00 59 08             	add    %bl,0x8(%rcx)
 368:	00 00                	add    %al,(%rax)
 36a:	81 03 00 00 13 01    	addl   $0x1130000,(%rbx)
 370:	55                   	push   %rbp
 371:	02 75 00             	add    0x0(%rbp),%dh
 374:	13 01                	adc    (%rcx),%eax
 376:	54                   	push   %rsp
 377:	02 74 00 13          	add    0x13(%rax,%rax,1),%dh
 37b:	01 51 02             	add    %edx,0x2(%rcx)
 37e:	7d 00                	jge    380 <__abi_tag+0x98>
 380:	00 12                	add    %dl,(%rdx)
 382:	c6                   	(bad)  
 383:	11 00                	adc    %eax,(%rax)
 385:	00 00                	add    %al,(%rax)
 387:	00 00                	add    %al,(%rax)
 389:	00 88 07 00 00 a5    	add    %cl,-0x5afffff9(%rax)
 38f:	03 00                	add    (%rax),%eax
 391:	00 13                	add    %dl,(%rbx)
 393:	01 55 02             	add    %edx,0x2(%rbp)
 396:	75 00                	jne    398 <__abi_tag+0xb0>
 398:	13 01                	adc    (%rcx),%eax
 39a:	54                   	push   %rsp
 39b:	02 74 00 13          	add    0x13(%rax,%rax,1),%dh
 39f:	01 51 02             	add    %edx,0x2(%rcx)
 3a2:	7d 00                	jge    3a4 <__abi_tag+0xbc>
 3a4:	00 12                	add    %dl,(%rdx)
 3a6:	d4                   	(bad)  
 3a7:	11 00                	adc    %eax,(%rax)
 3a9:	00 00                	add    %al,(%rax)
 3ab:	00 00                	add    %al,(%rax)
 3ad:	00 9f 06 00 00 c9    	add    %bl,-0x36fffffa(%rdi)
 3b3:	03 00                	add    (%rax),%eax
 3b5:	00 13                	add    %dl,(%rbx)
 3b7:	01 55 02             	add    %edx,0x2(%rbp)
 3ba:	75 00                	jne    3bc <__abi_tag+0xd4>
 3bc:	13 01                	adc    (%rcx),%eax
 3be:	54                   	push   %rsp
 3bf:	02 74 00 13          	add    0x13(%rax,%rax,1),%dh
 3c3:	01 51 02             	add    %edx,0x2(%rcx)
 3c6:	7d 00                	jge    3c8 <__abi_tag+0xe0>
 3c8:	00 12                	add    %dl,(%rdx)
 3ca:	f4                   	hlt    
 3cb:	11 00                	adc    %eax,(%rax)
 3cd:	00 00                	add    %al,(%rax)
 3cf:	00 00                	add    %al,(%rax)
 3d1:	00 dc                	add    %bl,%ah
 3d3:	0b 00                	or     (%rax),%eax
 3d5:	00 f2                	add    %dh,%dl
 3d7:	03 00                	add    (%rax),%eax
 3d9:	00 13                	add    %dl,(%rbx)
 3db:	01 55 09             	add    %edx,0x9(%rbp)
 3de:	03 04 30             	add    (%rax,%rsi,1),%eax
 3e1:	00 00                	add    %al,(%rax)
 3e3:	00 00                	add    %al,(%rax)
 3e5:	00 00                	add    %al,(%rax)
 3e7:	13 01                	adc    (%rcx),%eax
 3e9:	61                   	(bad)  
 3ea:	06                   	(bad)  
 3eb:	91                   	xchg   %eax,%ecx
 3ec:	b0 7f                	mov    $0x7f,%al
 3ee:	f6 08 2d             	testb  $0x2d,(%rax)
 3f1:	00 12                	add    %dl,(%rdx)
 3f3:	11 12                	adc    %edx,(%rdx)
 3f5:	00 00                	add    %al,(%rax)
 3f7:	00 00                	add    %al,(%rax)
 3f9:	00 00                	add    %al,(%rax)
 3fb:	dc 0b                	fmull  (%rbx)
 3fd:	00 00                	add    %al,(%rax)
 3ff:	1b 04 00             	sbb    (%rax,%rax,1),%eax
 402:	00 13                	add    %dl,(%rbx)
 404:	01 55 09             	add    %edx,0x9(%rbp)
 407:	03 0f                	add    (%rdi),%ecx
 409:	30 00                	xor    %al,(%rax)
 40b:	00 00                	add    %al,(%rax)
 40d:	00 00                	add    %al,(%rax)
 40f:	00 13                	add    %dl,(%rbx)
 411:	01 61 06             	add    %esp,0x6(%rcx)
 414:	91                   	xchg   %eax,%ecx
 415:	a8 7f                	test   $0x7f,%al
 417:	f6 08 2d             	testb  $0x2d,(%rax)
 41a:	00 12                	add    %dl,(%rdx)
 41c:	2c 12                	sub    $0x12,%al
 41e:	00 00                	add    %al,(%rax)
 420:	00 00                	add    %al,(%rax)
 422:	00 00                	add    %al,(%rax)
 424:	dc 0b                	fmull  (%rbx)
 426:	00 00                	add    %al,(%rax)
 428:	44 04 00             	rex.R add $0x0,%al
 42b:	00 13                	add    %dl,(%rbx)
 42d:	01 55 09             	add    %edx,0x9(%rbp)
 430:	03 1d 30 00 00 00    	add    0x30(%rip),%ebx        # 466 <__abi_tag+0x17e>
 436:	00 00                	add    %al,(%rax)
 438:	00 13                	add    %dl,(%rbx)
 43a:	01 61 06             	add    %esp,0x6(%rcx)
 43d:	91                   	xchg   %eax,%ecx
 43e:	a0 7f f6 08 2d 00 12 	movabs 0x124712002d08f67f,%al
 445:	47 12 
 447:	00 00                	add    %al,(%rax)
 449:	00 00                	add    %al,(%rax)
 44b:	00 00                	add    %al,(%rax)
 44d:	dc 0b                	fmull  (%rbx)
 44f:	00 00                	add    %al,(%rax)
 451:	6d                   	insl   (%dx),%es:(%rdi)
 452:	04 00                	add    $0x0,%al
 454:	00 13                	add    %dl,(%rbx)
 456:	01 55 09             	add    %edx,0x9(%rbp)
 459:	03 2b                	add    (%rbx),%ebp
 45b:	30 00                	xor    %al,(%rax)
 45d:	00 00                	add    %al,(%rax)
 45f:	00 00                	add    %al,(%rax)
 461:	00 13                	add    %dl,(%rbx)
 463:	01 61 06             	add    %esp,0x6(%rcx)
 466:	91                   	xchg   %eax,%ecx
 467:	98                   	cwtl   
 468:	7f f6                	jg     460 <__abi_tag+0x178>
 46a:	08 2d 00 12 61 12    	or     %ch,0x12611200(%rip)        # 12611670 <_end+0x1260c618>
 470:	00 00                	add    %al,(%rax)
 472:	00 00                	add    %al,(%rax)
 474:	00 00                	add    %al,(%rax)
 476:	dc 0b                	fmull  (%rbx)
 478:	00 00                	add    %al,(%rax)
 47a:	96                   	xchg   %eax,%esi
 47b:	04 00                	add    $0x0,%al
 47d:	00 13                	add    %dl,(%rbx)
 47f:	01 55 09             	add    %edx,0x9(%rbp)
 482:	03 39                	add    (%rcx),%edi
 484:	30 00                	xor    %al,(%rax)
 486:	00 00                	add    %al,(%rax)
 488:	00 00                	add    %al,(%rax)
 48a:	00 13                	add    %dl,(%rbx)
 48c:	01 61 06             	add    %esp,0x6(%rcx)
 48f:	91                   	xchg   %eax,%ecx
 490:	90                   	nop
 491:	7f f6                	jg     489 <__abi_tag+0x1a1>
 493:	08 2d 00 12 69 12    	or     %ch,0x12691200(%rip)        # 12691699 <_end+0x1268c641>
 499:	00 00                	add    %al,(%rax)
 49b:	00 00                	add    %al,(%rax)
 49d:	00 00                	add    %al,(%rax)
 49f:	e9 0b 00 00 ae       	jmpq   ffffffffae0004af <_end+0xffffffffadffb457>
 4a4:	04 00                	add    $0x0,%al
 4a6:	00 13                	add    %dl,(%rbx)
 4a8:	01 55 02             	add    %edx,0x2(%rbp)
 4ab:	7c 00                	jl     4ad <__abi_tag+0x1c5>
 4ad:	00 12                	add    %dl,(%rdx)
 4af:	71 12                	jno    4c3 <__abi_tag+0x1db>
 4b1:	00 00                	add    %al,(%rax)
 4b3:	00 00                	add    %al,(%rax)
 4b5:	00 00                	add    %al,(%rax)
 4b7:	e9 0b 00 00 c6       	jmpq   ffffffffc60004c7 <_end+0xffffffffc5ffb46f>
 4bc:	04 00                	add    $0x0,%al
 4be:	00 13                	add    %dl,(%rbx)
 4c0:	01 55 02             	add    %edx,0x2(%rbp)
 4c3:	76 00                	jbe    4c5 <__abi_tag+0x1dd>
 4c5:	00 12                	add    %dl,(%rdx)
 4c7:	80 12 00             	adcb   $0x0,(%rdx)
 4ca:	00 00                	add    %al,(%rax)
 4cc:	00 00                	add    %al,(%rax)
 4ce:	00 cf                	add    %cl,%bh
 4d0:	0b 00                	or     (%rax),%eax
 4d2:	00 e5                	add    %ah,%ch
 4d4:	04 00                	add    $0x0,%al
 4d6:	00 13                	add    %dl,(%rbx)
 4d8:	01 55 02             	add    %edx,0x2(%rbp)
 4db:	08 40 13             	or     %al,0x13(%rax)
 4de:	01 54 03 0a          	add    %edx,0xa(%rbx,%rax,1)
 4e2:	20 03                	and    %al,(%rbx)
 4e4:	00 12                	add    %dl,(%rdx)
 4e6:	92                   	xchg   %eax,%edx
 4e7:	12 00                	adc    (%rax),%al
 4e9:	00 00                	add    %al,(%rax)
 4eb:	00 00                	add    %al,(%rax)
 4ed:	00 cf                	add    %cl,%bh
 4ef:	0b 00                	or     (%rax),%eax
 4f1:	00 04 05 00 00 13 01 	add    %al,0x1130000(,%rax,1)
 4f8:	55                   	push   %rbp
 4f9:	02 08                	add    (%rax),%cl
 4fb:	40 13 01             	rex adc (%rcx),%eax
 4fe:	54                   	push   %rsp
 4ff:	03 0a                	add    (%rdx),%ecx
 501:	20 03                	and    %al,(%rbx)
 503:	00 12                	add    %dl,(%rdx)
 505:	0a 13                	or     (%rbx),%dl
 507:	00 00                	add    %al,(%rax)
 509:	00 00                	add    %al,(%rax)
 50b:	00 00                	add    %al,(%rax)
 50d:	2a 09                	sub    (%rcx),%cl
 50f:	00 00                	add    %al,(%rax)
 511:	28 05 00 00 13 01    	sub    %al,0x1130000(%rip)        # 1130517 <_end+0x112b4bf>
 517:	55                   	push   %rbp
 518:	02 75 00             	add    0x0(%rbp),%dh
 51b:	13 01                	adc    (%rcx),%eax
 51d:	54                   	push   %rsp
 51e:	02 74 00 13          	add    0x13(%rax,%rax,1),%dh
 522:	01 51 02             	add    %edx,0x2(%rcx)
 525:	08 64 00 12          	or     %ah,0x12(%rax,%rax,1)
 529:	1a 13                	sbb    (%rbx),%dl
 52b:	00 00                	add    %al,(%rax)
 52d:	00 00                	add    %al,(%rax)
 52f:	00 00                	add    %al,(%rax)
 531:	59                   	pop    %rcx
 532:	08 00                	or     %al,(%rax)
 534:	00 4c 05 00          	add    %cl,0x0(%rbp,%rax,1)
 538:	00 13                	add    %dl,(%rbx)
 53a:	01 55 02             	add    %edx,0x2(%rbp)
 53d:	75 00                	jne    53f <__abi_tag+0x257>
 53f:	13 01                	adc    (%rcx),%eax
 541:	54                   	push   %rsp
 542:	02 74 00 13          	add    0x13(%rax,%rax,1),%dh
 546:	01 51 02             	add    %edx,0x2(%rcx)
 549:	08 64 00 12          	or     %ah,0x12(%rax,%rax,1)
 54d:	2a 13                	sub    (%rbx),%dl
 54f:	00 00                	add    %al,(%rax)
 551:	00 00                	add    %al,(%rax)
 553:	00 00                	add    %al,(%rax)
 555:	88 07                	mov    %al,(%rdi)
 557:	00 00                	add    %al,(%rax)
 559:	70 05                	jo     560 <__abi_tag+0x278>
 55b:	00 00                	add    %al,(%rax)
 55d:	13 01                	adc    (%rcx),%eax
 55f:	55                   	push   %rbp
 560:	02 75 00             	add    0x0(%rbp),%dh
 563:	13 01                	adc    (%rcx),%eax
 565:	54                   	push   %rsp
 566:	02 74 00 13          	add    0x13(%rax,%rax,1),%dh
 56a:	01 51 02             	add    %edx,0x2(%rcx)
 56d:	08 64 00 12          	or     %ah,0x12(%rax,%rax,1)
 571:	3a 13                	cmp    (%rbx),%dl
 573:	00 00                	add    %al,(%rax)
 575:	00 00                	add    %al,(%rax)
 577:	00 00                	add    %al,(%rax)
 579:	9f                   	lahf   
 57a:	06                   	(bad)  
 57b:	00 00                	add    %al,(%rax)
 57d:	94                   	xchg   %eax,%esp
 57e:	05 00 00 13 01       	add    $0x1130000,%eax
 583:	55                   	push   %rbp
 584:	02 75 00             	add    0x0(%rbp),%dh
 587:	13 01                	adc    (%rcx),%eax
 589:	54                   	push   %rsp
 58a:	02 74 00 13          	add    0x13(%rax,%rax,1),%dh
 58e:	01 51 02             	add    %edx,0x2(%rcx)
 591:	08 64 00 12          	or     %ah,0x12(%rax,%rax,1)
 595:	5a                   	pop    %rdx
 596:	13 00                	adc    (%rax),%eax
 598:	00 00                	add    %al,(%rax)
 59a:	00 00                	add    %al,(%rax)
 59c:	00 dc                	add    %bl,%ah
 59e:	0b 00                	or     (%rax),%eax
 5a0:	00 bd 05 00 00 13    	add    %bh,0x13000005(%rbp)
 5a6:	01 55 09             	add    %edx,0x9(%rbp)
 5a9:	03 04 30             	add    (%rax,%rsi,1),%eax
 5ac:	00 00                	add    %al,(%rax)
 5ae:	00 00                	add    %al,(%rax)
 5b0:	00 00                	add    %al,(%rax)
 5b2:	13 01                	adc    (%rcx),%eax
 5b4:	61                   	(bad)  
 5b5:	06                   	(bad)  
 5b6:	91                   	xchg   %eax,%ecx
 5b7:	b0 7f                	mov    $0x7f,%al
 5b9:	f6 08 2d             	testb  $0x2d,(%rax)
 5bc:	00 12                	add    %dl,(%rdx)
 5be:	75 13                	jne    5d3 <__abi_tag+0x2eb>
 5c0:	00 00                	add    %al,(%rax)
 5c2:	00 00                	add    %al,(%rax)
 5c4:	00 00                	add    %al,(%rax)
 5c6:	dc 0b                	fmull  (%rbx)
 5c8:	00 00                	add    %al,(%rax)
 5ca:	e6 05                	out    %al,$0x5
 5cc:	00 00                	add    %al,(%rax)
 5ce:	13 01                	adc    (%rcx),%eax
 5d0:	55                   	push   %rbp
 5d1:	09 03                	or     %eax,(%rbx)
 5d3:	0f 30                	wrmsr  
 5d5:	00 00                	add    %al,(%rax)
 5d7:	00 00                	add    %al,(%rax)
 5d9:	00 00                	add    %al,(%rax)
 5db:	13 01                	adc    (%rcx),%eax
 5dd:	61                   	(bad)  
 5de:	06                   	(bad)  
 5df:	91                   	xchg   %eax,%ecx
 5e0:	a8 7f                	test   $0x7f,%al
 5e2:	f6 08 2d             	testb  $0x2d,(%rax)
 5e5:	00 12                	add    %dl,(%rdx)
 5e7:	90                   	nop
 5e8:	13 00                	adc    (%rax),%eax
 5ea:	00 00                	add    %al,(%rax)
 5ec:	00 00                	add    %al,(%rax)
 5ee:	00 dc                	add    %bl,%ah
 5f0:	0b 00                	or     (%rax),%eax
 5f2:	00 0f                	add    %cl,(%rdi)
 5f4:	06                   	(bad)  
 5f5:	00 00                	add    %al,(%rax)
 5f7:	13 01                	adc    (%rcx),%eax
 5f9:	55                   	push   %rbp
 5fa:	09 03                	or     %eax,(%rbx)
 5fc:	1d 30 00 00 00       	sbb    $0x30,%eax
 601:	00 00                	add    %al,(%rax)
 603:	00 13                	add    %dl,(%rbx)
 605:	01 61 06             	add    %esp,0x6(%rcx)
 608:	91                   	xchg   %eax,%ecx
 609:	a0 7f f6 08 2d 00 12 	movabs 0x13ab12002d08f67f,%al
 610:	ab 13 
 612:	00 00                	add    %al,(%rax)
 614:	00 00                	add    %al,(%rax)
 616:	00 00                	add    %al,(%rax)
 618:	dc 0b                	fmull  (%rbx)
 61a:	00 00                	add    %al,(%rax)
 61c:	38 06                	cmp    %al,(%rsi)
 61e:	00 00                	add    %al,(%rax)
 620:	13 01                	adc    (%rcx),%eax
 622:	55                   	push   %rbp
 623:	09 03                	or     %eax,(%rbx)
 625:	2b 30                	sub    (%rax),%esi
 627:	00 00                	add    %al,(%rax)
 629:	00 00                	add    %al,(%rax)
 62b:	00 00                	add    %al,(%rax)
 62d:	13 01                	adc    (%rcx),%eax
 62f:	61                   	(bad)  
 630:	06                   	(bad)  
 631:	91                   	xchg   %eax,%ecx
 632:	98                   	cwtl   
 633:	7f f6                	jg     62b <__abi_tag+0x343>
 635:	08 2d 00 12 c5 13    	or     %ch,0x13c51200(%rip)        # 13c5183b <_end+0x13c4c7e3>
 63b:	00 00                	add    %al,(%rax)
 63d:	00 00                	add    %al,(%rax)
 63f:	00 00                	add    %al,(%rax)
 641:	dc 0b                	fmull  (%rbx)
 643:	00 00                	add    %al,(%rax)
 645:	61                   	(bad)  
 646:	06                   	(bad)  
 647:	00 00                	add    %al,(%rax)
 649:	13 01                	adc    (%rcx),%eax
 64b:	55                   	push   %rbp
 64c:	09 03                	or     %eax,(%rbx)
 64e:	39 30                	cmp    %esi,(%rax)
 650:	00 00                	add    %al,(%rax)
 652:	00 00                	add    %al,(%rax)
 654:	00 00                	add    %al,(%rax)
 656:	13 01                	adc    (%rcx),%eax
 658:	61                   	(bad)  
 659:	06                   	(bad)  
 65a:	91                   	xchg   %eax,%ecx
 65b:	90                   	nop
 65c:	7f f6                	jg     654 <__abi_tag+0x36c>
 65e:	08 2d 00 12 cd 13    	or     %ch,0x13cd1200(%rip)        # 13cd1864 <_end+0x13ccc80c>
 664:	00 00                	add    %al,(%rax)
 666:	00 00                	add    %al,(%rax)
 668:	00 00                	add    %al,(%rax)
 66a:	e9 0b 00 00 79       	jmpq   7900067a <_end+0x78ffb622>
 66f:	06                   	(bad)  
 670:	00 00                	add    %al,(%rax)
 672:	13 01                	adc    (%rcx),%eax
 674:	55                   	push   %rbp
 675:	02 7c 00 00          	add    0x0(%rax,%rax,1),%bh
 679:	14 d5                	adc    $0xd5,%al
 67b:	13 00                	adc    (%rax),%eax
 67d:	00 00                	add    %al,(%rax)
 67f:	00 00                	add    %al,(%rax)
 681:	00 e9                	add    %ch,%cl
 683:	0b 00                	or     (%rax),%eax
 685:	00 13                	add    %dl,(%rbx)
 687:	01 55 02             	add    %edx,0x2(%rbp)
 68a:	76 00                	jbe    68c <__abi_tag+0x3a4>
 68c:	00 00                	add    %al,(%rax)
 68e:	04 08                	add    $0x8,%al
 690:	73 00                	jae    692 <__abi_tag+0x3aa>
 692:	00 00                	add    %al,(%rax)
 694:	04 08                	add    $0x8,%al
 696:	2d 00 00 00 15       	sub    $0x15000000,%eax
 69b:	94                   	xchg   %eax,%esp
 69c:	06                   	(bad)  
 69d:	00 00                	add    %al,(%rax)
 69f:	05 23 5e 00 00       	add    $0x5e23,%eax
 6a4:	01 7a 08             	add    %edi,0x8(%rdx)
 6a7:	2d 00 00 00 70       	sub    $0x70000000,%eax
 6ac:	1f                   	(bad)  
 6ad:	00 00                	add    %al,(%rax)
 6af:	00 00                	add    %al,(%rax)
 6b1:	00 00                	add    %al,(%rax)
 6b3:	aa                   	stos   %al,%es:(%rdi)
 6b4:	0c 00                	or     $0x0,%al
 6b6:	00 00                	add    %al,(%rax)
 6b8:	00 00                	add    %al,(%rax)
 6ba:	00 01                	add    %al,(%rcx)
 6bc:	9c                   	pushfq 
 6bd:	78 07                	js     6c6 <__abi_tag+0x3de>
 6bf:	00 00                	add    %al,(%rax)
 6c1:	16                   	(bad)  
 6c2:	61                   	(bad)  
 6c3:	00 01                	add    %al,(%rcx)
 6c5:	7a 25                	jp     6ec <__abi_tag+0x404>
 6c7:	9a                   	(bad)  
 6c8:	06                   	(bad)  
 6c9:	00 00                	add    %al,(%rax)
 6cb:	01 55 16             	add    %edx,0x16(%rbp)
 6ce:	62                   	(bad)  
 6cf:	00 01                	add    %al,(%rcx)
 6d1:	7a 39                	jp     70c <__abi_tag+0x424>
 6d3:	9a                   	(bad)  
 6d4:	06                   	(bad)  
 6d5:	00 00                	add    %al,(%rax)
 6d7:	01 54 17 6e          	add    %edx,0x6e(%rdi,%rdx,1)
 6db:	00 01                	add    %al,(%rcx)
 6dd:	7a 4f                	jp     72e <__abi_tag+0x446>
 6df:	80 00 00             	addb   $0x0,(%rax)
 6e2:	00 7d 06             	add    %bh,0x6(%rbp)
 6e5:	00 00                	add    %al,(%rax)
 6e7:	6d                   	insl   (%dx),%es:(%rdi)
 6e8:	06                   	(bad)  
 6e9:	00 00                	add    %al,(%rax)
 6eb:	07                   	(bad)  
 6ec:	64 00 01             	add    %al,%fs:(%rcx)
 6ef:	7c 0a                	jl     6fb <__abi_tag+0x413>
 6f1:	78 07                	js     6fa <__abi_tag+0x412>
 6f3:	00 00                	add    %al,(%rax)
 6f5:	7b 07                	jnp    6fe <__abi_tag+0x416>
 6f7:	00 00                	add    %al,(%rax)
 6f9:	2d 07 00 00 08       	sub    $0x8000007,%eax
 6fe:	88 0e                	mov    %cl,(%rsi)
 700:	00 00                	add    %al,(%rax)
 702:	01 7d 16             	add    %edi,0x16(%rbp)
 705:	80 00 00             	addb   $0x0,(%rax)
 708:	00 96 0d 00 00 94    	add    %dl,-0x6bfffff3(%rsi)
 70e:	0d 00 00 18 60       	or     $0x60180000,%eax
 713:	02 00                	add    (%rax),%al
 715:	00 2d 07 00 00 07    	add    %ch,0x7000007(%rip)        # 7000722 <_end+0x6ffb6ca>
 71b:	69 00 01 7f 1b 80    	imul   $0x801b7f01,(%rax),%eax
 721:	00 00                	add    %al,(%rax)
 723:	00 bd 0d 00 00 b9    	add    %bh,-0x46fffff3(%rbp)
 729:	0d 00 00 00 19       	or     $0x19000000,%eax
 72e:	28 2a                	sub    %ch,(%rdx)
 730:	00 00                	add    %al,(%rax)
 732:	00 00                	add    %al,(%rax)
 734:	00 00                	add    %al,(%rax)
 736:	20 01                	and    %al,(%rcx)
 738:	00 00                	add    %al,(%rax)
 73a:	00 00                	add    %al,(%rax)
 73c:	00 00                	add    %al,(%rax)
 73e:	08 ba 25 00 00 01    	or     %bh,0x1000025(%rdx)
 744:	95                   	xchg   %eax,%ebp
 745:	1a 80 00 00 00 fb    	sbb    -0x5000000(%rax),%al
 74b:	0d 00 00 f5 0d       	or     $0xdf50000,%eax
 750:	00 00                	add    %al,(%rax)
 752:	19 28                	sbb    %ebp,(%rax)
 754:	2a 00                	sub    (%rax),%al
 756:	00 00                	add    %al,(%rax)
 758:	00 00                	add    %al,(%rax)
 75a:	00 20                	add    %ah,(%rax)
 75c:	01 00                	add    %eax,(%rax)
 75e:	00 00                	add    %al,(%rax)
 760:	00 00                	add    %al,(%rax)
 762:	00 07                	add    %al,(%rdi)
 764:	69 00 01 97 1f 80    	imul   $0x801f9701,(%rax),%eax
 76a:	00 00                	add    %al,(%rax)
 76c:	00 4f 0e             	add    %cl,0xe(%rdi)
 76f:	00 00                	add    %al,(%rax)
 771:	4d 0e                	rex.WRB (bad) 
 773:	00 00                	add    %al,(%rax)
 775:	00 00                	add    %al,(%rax)
 777:	00 1a                	add    %bl,(%rdx)
 779:	2d 00 00 00 88       	sub    $0x88000000,%eax
 77e:	07                   	(bad)  
 77f:	00 00                	add    %al,(%rax)
 781:	1b 34 00             	sbb    (%rax,%rax,1),%esi
 784:	00 00                	add    %al,(%rax)
 786:	0f 00 05 eb 5e 00 00 	sldt   0x5eeb(%rip)        # 6678 <_end+0x1620>
 78d:	01 5d 08             	add    %ebx,0x8(%rbp)
 790:	2d 00 00 00 00       	sub    $0x0,%eax
 795:	1a 00                	sbb    (%rax),%al
 797:	00 00                	add    %al,(%rax)
 799:	00 00                	add    %al,(%rax)
 79b:	00 6c 05 00          	add    %ch,0x0(%rbp,%rax,1)
 79f:	00 00                	add    %al,(%rax)
 7a1:	00 00                	add    %al,(%rax)
 7a3:	00 01                	add    %al,(%rcx)
 7a5:	9c                   	pushfq 
 7a6:	49 08 00             	rex.WB or %al,(%r8)
 7a9:	00 16                	add    %dl,(%rsi)
 7ab:	61                   	(bad)  
 7ac:	00 01                	add    %al,(%rcx)
 7ae:	5d                   	pop    %rbp
 7af:	24 9a                	and    $0x9a,%al
 7b1:	06                   	(bad)  
 7b2:	00 00                	add    %al,(%rax)
 7b4:	01 55 16             	add    %edx,0x16(%rbp)
 7b7:	62                   	(bad)  
 7b8:	00 01                	add    %al,(%rcx)
 7ba:	5d                   	pop    %rbp
 7bb:	38 9a 06 00 00 01    	cmp    %bl,0x1000006(%rdx)
 7c1:	54                   	push   %rsp
 7c2:	17                   	(bad)  
 7c3:	6e                   	outsb  %ds:(%rsi),(%dx)
 7c4:	00 01                	add    %al,(%rcx)
 7c6:	5d                   	pop    %rbp
 7c7:	4e 80 00 00          	rex.WRX addb $0x0,(%rax)
 7cb:	00 87 0e 00 00 75    	add    %al,0x7500000e(%rdi)
 7d1:	0e                   	(bad)  
 7d2:	00 00                	add    %al,(%rax)
 7d4:	07                   	(bad)  
 7d5:	64 00 01             	add    %al,%fs:(%rcx)
 7d8:	5f                   	pop    %rdi
 7d9:	0a 49 08             	or     0x8(%rcx),%cl
 7dc:	00 00                	add    %al,(%rax)
 7de:	80 0f 00             	orb    $0x0,(%rdi)
 7e1:	00 4a 0f             	add    %cl,0xf(%rdx)
 7e4:	00 00                	add    %al,(%rax)
 7e6:	08 88 0e 00 00 01    	or     %cl,0x100000e(%rax)
 7ec:	60                   	(bad)  
 7ed:	16                   	(bad)  
 7ee:	80 00 00             	addb   $0x0,(%rax)
 7f1:	00 c4                	add    %al,%ah
 7f3:	13 00                	adc    (%rax),%eax
 7f5:	00 c2                	add    %al,%dl
 7f7:	13 00                	adc    (%rax),%eax
 7f9:	00 18                	add    %bl,(%rax)
 7fb:	f0 01 00             	lock add %eax,(%rax)
 7fe:	00 16                	add    %dl,(%rsi)
 800:	08 00                	or     %al,(%rax)
 802:	00 07                	add    %al,(%rdi)
 804:	69 00 01 62 1b 80    	imul   $0x801b6201,(%rax),%eax
 80a:	00 00                	add    %al,(%rax)
 80c:	00 eb                	add    %ch,%bl
 80e:	13 00                	adc    (%rax),%eax
 810:	00 e7                	add    %ah,%bh
 812:	13 00                	adc    (%rax),%eax
 814:	00 00                	add    %al,(%rax)
 816:	0f 30                	wrmsr  
 818:	02 00                	add    (%rax),%al
 81a:	00 07                	add    %al,(%rdi)
 81c:	6e                   	outsb  %ds:(%rsi),(%dx)
 81d:	5f                   	pop    %rdi
 81e:	38 00                	cmp    %al,(%rax)
 820:	01 70 1a             	add    %esi,0x1a(%rax)
 823:	80 00 00             	addb   $0x0,(%rax)
 826:	00 2b                	add    %ch,(%rbx)
 828:	14 00                	adc    $0x0,%al
 82a:	00 23                	add    %ah,(%rbx)
 82c:	14 00                	adc    $0x0,%al
 82e:	00 0f                	add    %cl,(%rdi)
 830:	30 02                	xor    %al,(%rdx)
 832:	00 00                	add    %al,(%rax)
 834:	07                   	(bad)  
 835:	69 00 01 72 1f 80    	imul   $0x801f7201,(%rax),%eax
 83b:	00 00                	add    %al,(%rax)
 83d:	00 9a 14 00 00 92    	add    %bl,-0x6dffffec(%rdx)
 843:	14 00                	adc    $0x0,%al
 845:	00 00                	add    %al,(%rax)
 847:	00 00                	add    %al,(%rax)
 849:	1a 2d 00 00 00 59    	sbb    0x59000000(%rip),%ch        # 5900084f <_end+0x58ffb7f7>
 84f:	08 00                	or     %al,(%rax)
 851:	00 1b                	add    %bl,(%rbx)
 853:	34 00                	xor    $0x0,%al
 855:	00 00                	add    %al,(%rax)
 857:	07                   	(bad)  
 858:	00 05 e8 50 00 00    	add    %al,0x50e8(%rip)        # 5946 <_end+0x8ee>
 85e:	01 44 08 2d          	add    %eax,0x2d(%rax,%rcx,1)
 862:	00 00                	add    %al,(%rax)
 864:	00 b0 17 00 00 00    	add    %dh,0x17(%rax)
 86a:	00 00                	add    %al,(%rax)
 86c:	00 44 02 00          	add    %al,0x0(%rdx,%rax,1)
 870:	00 00                	add    %al,(%rax)
 872:	00 00                	add    %al,(%rax)
 874:	00 01                	add    %al,(%rcx)
 876:	9c                   	pushfq 
 877:	1a 09                	sbb    (%rcx),%cl
 879:	00 00                	add    %al,(%rax)
 87b:	16                   	(bad)  
 87c:	61                   	(bad)  
 87d:	00 01                	add    %al,(%rcx)
 87f:	44 24 9a             	rex.R and $0x9a,%al
 882:	06                   	(bad)  
 883:	00 00                	add    %al,(%rax)
 885:	01 55 16             	add    %edx,0x16(%rbp)
 888:	62                   	(bad)  
 889:	00 01                	add    %al,(%rcx)
 88b:	44 38 9a 06 00 00 01 	cmp    %r11b,0x1000006(%rdx)
 892:	54                   	push   %rsp
 893:	17                   	(bad)  
 894:	6e                   	outsb  %ds:(%rsi),(%dx)
 895:	00 01                	add    %al,(%rcx)
 897:	44                   	rex.R
 898:	4e 80 00 00          	rex.WRX addb $0x0,(%rax)
 89c:	00 01                	add    %al,(%rcx)
 89e:	15 00 00 f9 14       	adc    $0x14f90000,%eax
 8a3:	00 00                	add    %al,(%rax)
 8a5:	07                   	(bad)  
 8a6:	64 00 01             	add    %al,%fs:(%rcx)
 8a9:	46 0a 1a             	rex.RX or (%rdx),%r11b
 8ac:	09 00                	or     %eax,(%rax)
 8ae:	00 89 15 00 00 5d    	add    %cl,0x5d000015(%rcx)
 8b4:	15 00 00 08 88       	adc    $0x88080000,%eax
 8b9:	0e                   	(bad)  
 8ba:	00 00                	add    %al,(%rax)
 8bc:	01 47 16             	add    %eax,0x16(%rdi)
 8bf:	80 00 00             	addb   $0x0,(%rax)
 8c2:	00 5a 18             	add    %bl,0x18(%rdx)
 8c5:	00 00                	add    %al,(%rax)
 8c7:	58                   	pop    %rax
 8c8:	18 00                	sbb    %al,(%rax)
 8ca:	00 18                	add    %bl,(%rax)
 8cc:	80 01 00             	addb   $0x0,(%rcx)
 8cf:	00 e7                	add    %ah,%bh
 8d1:	08 00                	or     %al,(%rax)
 8d3:	00 07                	add    %al,(%rdi)
 8d5:	69 00 01 49 1b 80    	imul   $0x801b4901,(%rax),%eax
 8db:	00 00                	add    %al,(%rax)
 8dd:	00 81 18 00 00 7d    	add    %al,0x7d000018(%rcx)
 8e3:	18 00                	sbb    %al,(%rax)
 8e5:	00 00                	add    %al,(%rax)
 8e7:	0f c0 01             	xadd   %al,(%rcx)
 8ea:	00 00                	add    %al,(%rax)
 8ec:	07                   	(bad)  
 8ed:	6e                   	outsb  %ds:(%rsi),(%dx)
 8ee:	5f                   	pop    %rdi
 8ef:	34 00                	xor    $0x0,%al
 8f1:	01 53 1a             	add    %edx,0x1a(%rbx)
 8f4:	80 00 00             	addb   $0x0,(%rax)
 8f7:	00 bd 18 00 00 b9    	add    %bh,-0x46ffffe8(%rbp)
 8fd:	18 00                	sbb    %al,(%rax)
 8ff:	00 0f                	add    %cl,(%rdi)
 901:	c0 01 00             	rolb   $0x0,(%rcx)
 904:	00 07                	add    %al,(%rdi)
 906:	69 00 01 55 1f 80    	imul   $0x801f5501,(%rax),%eax
 90c:	00 00                	add    %al,(%rax)
 90e:	00 ff                	add    %bh,%bh
 910:	18 00                	sbb    %al,(%rax)
 912:	00 f7                	add    %dh,%bh
 914:	18 00                	sbb    %al,(%rax)
 916:	00 00                	add    %al,(%rax)
 918:	00 00                	add    %al,(%rax)
 91a:	1a 2d 00 00 00 2a    	sbb    0x2a000000(%rip),%ch        # 2a000920 <_end+0x29ffb8c8>
 920:	09 00                	or     %eax,(%rax)
 922:	00 1b                	add    %bl,(%rbx)
 924:	34 00                	xor    $0x0,%al
 926:	00 00                	add    %al,(%rax)
 928:	03 00                	add    (%rax),%eax
 92a:	1c 5a                	sbb    $0x5a,%al
 92c:	4a 00 00             	rex.WX add %al,(%rax)
 92f:	01 26                	add    %esp,(%rsi)
 931:	08 2d 00 00 00 01    	or     %ch,0x1000000(%rip)        # 1000937 <_end+0xffb8df>
 937:	8e 09                	mov    (%rcx),%cs
 939:	00 00                	add    %al,(%rax)
 93b:	1d 61 00 01 26       	sbb    $0x26010061,%eax
 940:	24 9a                	and    $0x9a,%al
 942:	06                   	(bad)  
 943:	00 00                	add    %al,(%rax)
 945:	1d 62 00 01 26       	sbb    $0x26010062,%eax
 94a:	38 9a 06 00 00 1d    	cmp    %bl,0x1d000006(%rdx)
 950:	6e                   	outsb  %ds:(%rsi),(%dx)
 951:	00 01                	add    %al,(%rcx)
 953:	26 4e 80 00 00       	rex.WRX addb $0x0,%es:(%rax)
 958:	00 1e                	add    %bl,(%rsi)
 95a:	64 00 01             	add    %al,%fs:(%rcx)
 95d:	28 0a                	sub    %cl,(%rdx)
 95f:	8e 09                	mov    (%rcx),%cs
 961:	00 00                	add    %al,(%rax)
 963:	1f                   	(bad)  
 964:	81 09 00 00 1e 6e    	orl    $0x6e1e0000,(%rcx)
 96a:	5f                   	pop    %rdi
 96b:	31 00                	xor    %eax,(%rax)
 96d:	01 2d 1a 80 00 00    	add    %ebp,0x801a(%rip)        # 898d <_end+0x3935>
 973:	00 20                	add    %ah,(%rax)
 975:	1e                   	(bad)  
 976:	69 00 01 2f 1f 80    	imul   $0x801f2f01,(%rax),%eax
 97c:	00 00                	add    %al,(%rax)
 97e:	00 00                	add    %al,(%rax)
 980:	00 20                	add    %ah,(%rax)
 982:	1e                   	(bad)  
 983:	69 00 01 39 1f 80    	imul   $0x801f3901,(%rax),%eax
 989:	00 00                	add    %al,(%rax)
 98b:	00 00                	add    %al,(%rax)
 98d:	00 1a                	add    %bl,(%rdx)
 98f:	2d 00 00 00 9e       	sub    $0x9e000000,%eax
 994:	09 00                	or     %eax,(%rax)
 996:	00 1b                	add    %bl,(%rbx)
 998:	34 00                	xor    $0x0,%al
 99a:	00 00                	add    %al,(%rax)
 99c:	01 00                	add    %eax,(%rax)
 99e:	1c 6b                	sbb    $0x6b,%al
 9a0:	40 00 00             	add    %al,(%rax)
 9a3:	01 1b                	add    %ebx,(%rbx)
 9a5:	08 2d 00 00 00 01    	or     %ch,0x1000000(%rip)        # 10009ab <_end+0xffb953>
 9ab:	e4 09                	in     $0x9,%al
 9ad:	00 00                	add    %al,(%rax)
 9af:	1d 61 00 01 1b       	sbb    $0x1b010061,%eax
 9b4:	21 9a 06 00 00 1d    	and    %ebx,0x1d000006(%rdx)
 9ba:	62                   	(bad)  
 9bb:	00 01                	add    %al,(%rcx)
 9bd:	1b 35 9a 06 00 00    	sbb    0x69a(%rip),%esi        # 105d <strtoll@plt+0xd>
 9c3:	1d 6e 00 01 1b       	sbb    $0x1b01006e,%eax
 9c8:	4b 80 00 00          	rex.WXB addb $0x0,(%r8)
 9cc:	00 1e                	add    %bl,(%rsi)
 9ce:	64 00 01             	add    %al,%fs:(%rcx)
 9d1:	1d 0a 2d 00 00       	sbb    $0x2d0a,%eax
 9d6:	00 20                	add    %ah,(%rax)
 9d8:	1e                   	(bad)  
 9d9:	69 00 01 1f 1b 80    	imul   $0x801b1f01,(%rax),%eax
 9df:	00 00                	add    %al,(%rax)
 9e1:	00 00                	add    %al,(%rax)
 9e3:	00 21                	add    %ah,(%rcx)
 9e5:	0f 33                	rdpmc  
 9e7:	00 00                	add    %al,(%rax)
 9e9:	01 11                	add    %edx,(%rcx)
 9eb:	0d 01 1c 0a 00       	or     $0xa1c01,%eax
 9f0:	00 1d 61 00 01 11    	add    %bl,0x11010061(%rip)        # 11010a57 <_end+0x1100b9ff>
 9f6:	23 9a 06 00 00 1d    	and    0x1d000006(%rdx),%ebx
 9fc:	62                   	(bad)  
 9fd:	00 01                	add    %al,(%rcx)
 9ff:	11 37                	adc    %esi,(%rdi)
 a01:	9a                   	(bad)  
 a02:	06                   	(bad)  
 a03:	00 00                	add    %al,(%rax)
 a05:	1d 6e 00 01 11       	sbb    $0x1101006e,%eax
 a0a:	4d 80 00 00          	rex.WRB addb $0x0,(%r8)
 a0e:	00 20                	add    %ah,(%rax)
 a10:	1e                   	(bad)  
 a11:	69 00 01 13 1b 80    	imul   $0x801b1301,(%rax),%eax
 a17:	00 00                	add    %al,(%rax)
 a19:	00 00                	add    %al,(%rax)
 a1b:	00 05 c4 1a 00 00    	add    %al,0x1ac4(%rip)        # 24e5 <dotprod_16x+0x575>
 a21:	01 08                	add    %ecx,(%rax)
 a23:	14 80                	adc    $0x80,%al
 a25:	00 00                	add    %al,(%rax)
 a27:	00 30                	add    %dh,(%rax)
 a29:	15 00 00 00 00       	adc    $0x0,%eax
 a2e:	00 00                	add    %al,(%rax)
 a30:	20 00                	and    %al,(%rax)
 a32:	00 00                	add    %al,(%rax)
 a34:	00 00                	add    %al,(%rax)
 a36:	00 00                	add    %al,(%rax)
 a38:	01 9c 96 0a 00 00 06 	add    %ebx,0x600000a(%rsi,%rdx,4)
 a3f:	b6 2d                	mov    $0x2d,%dh
 a41:	00 00                	add    %al,(%rax)
 a43:	01 08                	add    %ecx,(%rax)
 a45:	23 3b                	and    (%rbx),%edi
 a47:	00 00                	add    %al,(%rax)
 a49:	00 65 19             	add    %ah,0x19(%rbp)
 a4c:	00 00                	add    %al,(%rax)
 a4e:	5d                   	pop    %rbp
 a4f:	19 00                	sbb    %eax,(%rax)
 a51:	00 06                	add    %al,(%rsi)
 a53:	4c                   	rex.WR
 a54:	2e 00 00             	add    %al,%cs:(%rax)
 a57:	01 08                	add    %ecx,(%rax)
 a59:	30 8e 06 00 00 cf    	xor    %cl,-0x30fffffa(%rsi)
 a5f:	19 00                	sbb    %eax,(%rax)
 a61:	00 c7                	add    %al,%bh
 a63:	19 00                	sbb    %eax,(%rax)
 a65:	00 22                	add    %ah,(%rdx)
 a67:	45 15 00 00 00 00    	rex.RB adc $0x0,%eax
 a6d:	00 00                	add    %al,(%rax)
 a6f:	f6 0b 00             	testb  $0x0,(%rbx)
 a72:	00 82 0a 00 00 13    	add    %al,0x1300000a(%rdx)
 a78:	01 54 01 30          	add    %edx,0x30(%rcx,%rax,1)
 a7c:	13 01                	adc    (%rcx),%eax
 a7e:	51                   	push   %rcx
 a7f:	01 3a                	add    %edi,(%rdx)
 a81:	00 14 50             	add    %dl,(%rax,%rdx,2)
 a84:	15 00 00 00 00       	adc    $0x0,%eax
 a89:	00 00                	add    %al,(%rax)
 a8b:	02 0c 00             	add    (%rax,%rax,1),%cl
 a8e:	00 13                	add    %dl,(%rbx)
 a90:	01 55 01             	add    %edx,0x1(%rbp)
 a93:	31 00                	xor    %eax,(%rax)
 a95:	00 23                	add    %ah,(%rbx)
 a97:	9e                   	sahf   
 a98:	09 00                	or     %eax,(%rax)
 a9a:	00 50 15             	add    %dl,0x15(%rax)
 a9d:	00 00                	add    %al,(%rax)
 a9f:	00 00                	add    %al,(%rax)
 aa1:	00 00                	add    %al,(%rax)
 aa3:	79 00                	jns    aa5 <__abi_tag+0x7bd>
 aa5:	00 00                	add    %al,(%rax)
 aa7:	00 00                	add    %al,(%rax)
 aa9:	00 00                	add    %al,(%rax)
 aab:	01 9c f1 0a 00 00 24 	add    %ebx,0x2400000a(%rcx,%rsi,8)
 ab2:	af                   	scas   %es:(%rdi),%eax
 ab3:	09 00                	or     %eax,(%rax)
 ab5:	00 01                	add    %al,(%rcx)
 ab7:	55                   	push   %rbp
 ab8:	24 b9                	and    $0xb9,%al
 aba:	09 00                	or     %eax,(%rax)
 abc:	00 01                	add    %al,(%rcx)
 abe:	54                   	push   %rsp
 abf:	0a c3                	or     %bl,%al
 ac1:	09 00                	or     %eax,(%rax)
 ac3:	00 37                	add    %dh,(%rdi)
 ac5:	1a 00                	sbb    (%rax),%al
 ac7:	00 31                	add    %dh,(%rcx)
 ac9:	1a 00                	sbb    (%rax),%al
 acb:	00 0c cd 09 00 00 8b 	add    %cl,-0x74fffff7(,%rcx,8)
 ad2:	1a 00                	sbb    (%rax),%al
 ad4:	00 83 1a 00 00 0b    	add    %al,0xb00001a(%rbx)
 ada:	d7                   	xlat   %ds:(%rbx)
 adb:	09 00                	or     %eax,(%rax)
 add:	00 00                	add    %al,(%rax)
 adf:	00 00                	add    %al,(%rax)
 ae1:	00 0c d8             	add    %cl,(%rax,%rbx,8)
 ae4:	09 00                	or     %eax,(%rax)
 ae6:	00 fd                	add    %bh,%ch
 ae8:	1a 00                	sbb    (%rax),%al
 aea:	00 f9                	add    %bh,%cl
 aec:	1a 00                	sbb    (%rax),%al
 aee:	00 00                	add    %al,(%rax)
 af0:	00 23                	add    %ah,(%rbx)
 af2:	2a 09                	sub    (%rcx),%cl
 af4:	00 00                	add    %al,(%rax)
 af6:	d0 15 00 00 00 00    	rclb   0x0(%rip)        # afc <__abi_tag+0x814>
 afc:	00 00                	add    %al,(%rax)
 afe:	d7                   	xlat   %ds:(%rbx)
 aff:	01 00                	add    %eax,(%rax)
 b01:	00 00                	add    %al,(%rax)
 b03:	00 00                	add    %al,(%rax)
 b05:	00 01                	add    %al,(%rcx)
 b07:	9c                   	pushfq 
 b08:	cf                   	iret   
 b09:	0b 00                	or     (%rax),%eax
 b0b:	00 24 3b             	add    %ah,(%rbx,%rdi,1)
 b0e:	09 00                	or     %eax,(%rax)
 b10:	00 01                	add    %al,(%rcx)
 b12:	55                   	push   %rbp
 b13:	24 45                	and    $0x45,%al
 b15:	09 00                	or     %eax,(%rax)
 b17:	00 01                	add    %al,(%rcx)
 b19:	54                   	push   %rsp
 b1a:	0a 4f 09             	or     0x9(%rdi),%cl
 b1d:	00 00                	add    %al,(%rax)
 b1f:	41 1b 00             	sbb    (%r8),%eax
 b22:	00 35 1b 00 00 0c    	add    %dh,0xc00001b(%rip)        # c000b43 <_end+0xbffbaeb>
 b28:	59                   	pop    %rcx
 b29:	09 00                	or     %eax,(%rax)
 b2b:	00 e0                	add    %ah,%al
 b2d:	1b 00                	sbb    (%rax),%eax
 b2f:	00 ca                	add    %cl,%dl
 b31:	1b 00                	sbb    (%rax),%eax
 b33:	00 25 81 09 00 00    	add    %ah,0x981(%rip)        # 14ba <register_tm_clones+0x2a>
 b39:	40 00 00             	add    %al,(%rax)
 b3c:	00 4f 0b             	add    %cl,0xb(%rdi)
 b3f:	00 00                	add    %al,(%rax)
 b41:	0c 82                	or     $0x82,%al
 b43:	09 00                	or     %eax,(%rax)
 b45:	00 1f                	add    %bl,(%rdi)
 b47:	1d 00 00 19 1d       	sbb    $0x1d190000,%eax
 b4c:	00 00                	add    %al,(%rax)
 b4e:	00 26                	add    %ah,(%rsi)
 b50:	2a 09                	sub    (%rcx),%cl
 b52:	00 00                	add    %al,(%rax)
 b54:	a0 16 00 00 00 00 00 	movabs 0x16,%al
 b5b:	00 00 
 b5d:	00 80 00 00 00 01    	add    %al,0x1000000(%rax)
 b63:	26 08 0a             	or     %cl,%es:(%rdx)
 b66:	4f 09 00             	rex.WRXB or %r8,(%r8)
 b69:	00 71 1d             	add    %dh,0x1d(%rcx)
 b6c:	00 00                	add    %al,(%rax)
 b6e:	6b 1d 00 00 0a 45 09 	imul   $0x9,0x450a0000(%rip),%ebx        # 450a0b75 <_end+0x4509bb1d>
 b75:	00 00                	add    %al,(%rax)
 b77:	c0 1d 00 00 ba 1d 00 	rcrb   $0x0,0x1dba0000(%rip)        # 1dba0b7e <_end+0x1db9bb26>
 b7e:	00 0a                	add    %cl,(%rdx)
 b80:	3b 09                	cmp    (%rcx),%ecx
 b82:	00 00                	add    %al,(%rax)
 b84:	0f 1e 00             	nopl   (%rax)
 b87:	00 09                	add    %cl,(%rcx)
 b89:	1e                   	(bad)  
 b8a:	00 00                	add    %al,(%rax)
 b8c:	0f 80 00 00 00 0c    	jo     c000b92 <_end+0xbffbb3a>
 b92:	59                   	pop    %rcx
 b93:	09 00                	or     %eax,(%rax)
 b95:	00 6e 1e             	add    %ch,0x1e(%rsi)
 b98:	00 00                	add    %al,(%rax)
 b9a:	58                   	pop    %rax
 b9b:	1e                   	(bad)  
 b9c:	00 00                	add    %al,(%rax)
 b9e:	0b 63 09             	or     0x9(%rbx),%esp
 ba1:	00 00                	add    %al,(%rax)
 ba3:	c0 00 00             	rolb   $0x0,(%rax)
 ba6:	00 0c 68             	add    %cl,(%rax,%rbp,2)
 ba9:	09 00                	or     %eax,(%rax)
 bab:	00 bf 1f 00 00 b9    	add    %bh,-0x46ffffe1(%rdi)
 bb1:	1f                   	(bad)  
 bb2:	00 00                	add    %al,(%rax)
 bb4:	0b 74 09 00          	or     0x0(%rcx,%rcx,1),%esi
 bb8:	00 20                	add    %ah,(%rax)
 bba:	01 00                	add    %eax,(%rax)
 bbc:	00 0c 75 09 00 00 14 	add    %cl,0x14000009(,%rsi,2)
 bc3:	20 00                	and    %al,(%rax)
 bc5:	00 0e                	add    %cl,(%rsi)
 bc7:	20 00                	and    %al,(%rax)
 bc9:	00 00                	add    %al,(%rax)
 bcb:	00 00                	add    %al,(%rax)
 bcd:	00 00                	add    %al,(%rax)
 bcf:	27                   	(bad)  
 bd0:	29 09                	sub    %ecx,(%rcx)
 bd2:	00 00                	add    %al,(%rax)
 bd4:	29 09                	sub    %ecx,(%rcx)
 bd6:	00 00                	add    %al,(%rax)
 bd8:	02 4a 02             	add    0x2(%rdx),%cl
 bdb:	0e                   	(bad)  
 bdc:	27                   	(bad)  
 bdd:	2d 22 00 00 2d       	sub    $0x2d000022,%eax
 be2:	22 00                	and    (%rax),%al
 be4:	00 03                	add    %al,(%rbx)
 be6:	4c 01 0c 27          	add    %r9,(%rdi,%riz,1)
 bea:	7b 5c                	jnp    c48 <__abi_tag+0x960>
 bec:	00 00                	add    %al,(%rax)
 bee:	7b 5c                	jnp    c4c <__abi_tag+0x964>
 bf0:	00 00                	add    %al,(%rax)
 bf2:	02 35 02 0d 28 ba    	add    -0x45d7f2fe(%rip),%dh        # ffffffffba2818fa <_end+0xffffffffba27c8a2>
 bf8:	04 00                	add    $0x0,%al
 bfa:	00 ba 04 00 00 02    	add    %bh,0x2000004(%rdx)
 c00:	c8 16 27 e2          	enterq $0x2716,$0xe2
 c04:	4b 00 00             	rex.WXB add %al,(%r8)
 c07:	e2 4b                	loop   c54 <__abi_tag+0x96c>
 c09:	00 00                	add    %al,(%rax)
 c0b:	02 69 02             	add    0x2(%rcx),%ch
 c0e:	0d                   	.byte 0xd
	...

Déassemblage de la section .debug_abbrev :

0000000000000000 <.debug_abbrev>:
   0:	01 11                	add    %edx,(%rcx)
   2:	01 25 0e 13 0b 03    	add    %esp,0x30b130e(%rip)        # 30b1316 <_end+0x30ac2be>
   8:	0e                   	(bad)  
   9:	1b 0e                	sbb    (%rsi),%ecx
   b:	55                   	push   %rbp
   c:	17                   	(bad)  
   d:	11 01                	adc    %eax,(%rcx)
   f:	10 17                	adc    %dl,(%rdi)
  11:	99                   	cltd   
  12:	42 17                	rex.X (bad) 
  14:	00 00                	add    %al,(%rax)
  16:	02 24 00             	add    (%rax,%rax,1),%ah
  19:	0b 0b                	or     (%rbx),%ecx
  1b:	3e 0b 03             	or     %ds:(%rbx),%eax
  1e:	0e                   	(bad)  
  1f:	00 00                	add    %al,(%rax)
  21:	03 24 00             	add    (%rax,%rax,1),%esp
  24:	0b 0b                	or     (%rbx),%ecx
  26:	3e 0b 03             	or     %ds:(%rbx),%eax
  29:	08 00                	or     %al,(%rax)
  2b:	00 04 0f             	add    %al,(%rdi,%rcx,1)
  2e:	00 0b                	add    %cl,(%rbx)
  30:	0b 49 13             	or     0x13(%rcx),%ecx
  33:	00 00                	add    %al,(%rax)
  35:	05 2e 01 3f 19       	add    $0x193f012e,%eax
  3a:	03 0e                	add    (%rsi),%ecx
  3c:	3a 0b                	cmp    (%rbx),%cl
  3e:	3b 0b                	cmp    (%rbx),%ecx
  40:	39 0b                	cmp    %ecx,(%rbx)
  42:	27                   	(bad)  
  43:	19 49 13             	sbb    %ecx,0x13(%rcx)
  46:	11 01                	adc    %eax,(%rcx)
  48:	12 07                	adc    (%rdi),%al
  4a:	40 18 97 42 19 01 13 	sbb    %dl,0x13011942(%rdi)
  51:	00 00                	add    %al,(%rax)
  53:	06                   	(bad)  
  54:	05 00 03 0e 3a       	add    $0x3a0e0300,%eax
  59:	0b 3b                	or     (%rbx),%edi
  5b:	0b 39                	or     (%rcx),%edi
  5d:	0b 49 13             	or     0x13(%rcx),%ecx
  60:	02 17                	add    (%rdi),%dl
  62:	b7 42                	mov    $0x42,%bh
  64:	17                   	(bad)  
  65:	00 00                	add    %al,(%rax)
  67:	07                   	(bad)  
  68:	34 00                	xor    $0x0,%al
  6a:	03 08                	add    (%rax),%ecx
  6c:	3a 0b                	cmp    (%rbx),%cl
  6e:	3b 0b                	cmp    (%rbx),%ecx
  70:	39 0b                	cmp    %ecx,(%rbx)
  72:	49 13 02             	adc    (%r10),%rax
  75:	17                   	(bad)  
  76:	b7 42                	mov    $0x42,%bh
  78:	17                   	(bad)  
  79:	00 00                	add    %al,(%rax)
  7b:	08 34 00             	or     %dh,(%rax,%rax,1)
  7e:	03 0e                	add    (%rsi),%ecx
  80:	3a 0b                	cmp    (%rbx),%cl
  82:	3b 0b                	cmp    (%rbx),%ecx
  84:	39 0b                	cmp    %ecx,(%rbx)
  86:	49 13 02             	adc    (%r10),%rax
  89:	17                   	(bad)  
  8a:	b7 42                	mov    $0x42,%bh
  8c:	17                   	(bad)  
  8d:	00 00                	add    %al,(%rax)
  8f:	09 1d 01 31 13 52    	or     %ebx,0x52133101(%rip)        # 52133196 <_end+0x5212e13e>
  95:	01 b8 42 05 55 17    	add    %edi,0x17550542(%rax)
  9b:	58                   	pop    %rax
  9c:	0b 59 0b             	or     0xb(%rcx),%ebx
  9f:	57                   	push   %rdi
  a0:	0b 01                	or     (%rcx),%eax
  a2:	13 00                	adc    (%rax),%eax
  a4:	00 0a                	add    %cl,(%rdx)
  a6:	05 00 31 13 02       	add    $0x2133100,%eax
  ab:	17                   	(bad)  
  ac:	b7 42                	mov    $0x42,%bh
  ae:	17                   	(bad)  
  af:	00 00                	add    %al,(%rax)
  b1:	0b 0b                	or     (%rbx),%ecx
  b3:	01 31                	add    %esi,(%rcx)
  b5:	13 55 17             	adc    0x17(%rbp),%edx
  b8:	00 00                	add    %al,(%rax)
  ba:	0c 34                	or     $0x34,%al
  bc:	00 31                	add    %dh,(%rcx)
  be:	13 02                	adc    (%rdx),%eax
  c0:	17                   	(bad)  
  c1:	b7 42                	mov    $0x42,%bh
  c3:	17                   	(bad)  
  c4:	00 00                	add    %al,(%rax)
  c6:	0d 1d 01 31 13       	or     $0x1331011d,%eax
  cb:	55                   	push   %rbp
  cc:	17                   	(bad)  
  cd:	58                   	pop    %rax
  ce:	0b 59 0b             	or     0xb(%rcx),%ebx
  d1:	57                   	push   %rdi
  d2:	0b 01                	or     (%rcx),%eax
  d4:	13 00                	adc    (%rax),%eax
  d6:	00 0e                	add    %cl,(%rsi)
  d8:	05 00 31 13 00       	add    $0x133100,%eax
  dd:	00 0f                	add    %cl,(%rdi)
  df:	0b 01                	or     (%rcx),%eax
  e1:	55                   	push   %rbp
  e2:	17                   	(bad)  
  e3:	00 00                	add    %al,(%rax)
  e5:	10 0b                	adc    %cl,(%rbx)
  e7:	01 31                	add    %esi,(%rcx)
  e9:	13 11                	adc    (%rcx),%edx
  eb:	01 12                	add    %edx,(%rdx)
  ed:	07                   	(bad)  
  ee:	00 00                	add    %al,(%rax)
  f0:	11 34 00             	adc    %esi,(%rax,%rax,1)
  f3:	31 13                	xor    %edx,(%rbx)
  f5:	00 00                	add    %al,(%rax)
  f7:	12 89 82 01 01 11    	adc    0x11010182(%rcx),%cl
  fd:	01 31                	add    %esi,(%rcx)
  ff:	13 01                	adc    (%rcx),%eax
 101:	13 00                	adc    (%rax),%eax
 103:	00 13                	add    %dl,(%rbx)
 105:	8a 82 01 00 02 18    	mov    0x18020001(%rdx),%al
 10b:	91                   	xchg   %eax,%ecx
 10c:	42 18 00             	rex.X sbb %al,(%rax)
 10f:	00 14 89             	add    %dl,(%rcx,%rcx,4)
 112:	82                   	(bad)  
 113:	01 01                	add    %eax,(%rcx)
 115:	11 01                	adc    %eax,(%rcx)
 117:	31 13                	xor    %edx,(%rbx)
 119:	00 00                	add    %al,(%rax)
 11b:	15 37 00 49 13       	adc    $0x13490037,%eax
 120:	00 00                	add    %al,(%rax)
 122:	16                   	(bad)  
 123:	05 00 03 08 3a       	add    $0x3a080300,%eax
 128:	0b 3b                	or     (%rbx),%edi
 12a:	0b 39                	or     (%rcx),%edi
 12c:	0b 49 13             	or     0x13(%rcx),%ecx
 12f:	02 18                	add    (%rax),%bl
 131:	00 00                	add    %al,(%rax)
 133:	17                   	(bad)  
 134:	05 00 03 08 3a       	add    $0x3a080300,%eax
 139:	0b 3b                	or     (%rbx),%edi
 13b:	0b 39                	or     (%rcx),%edi
 13d:	0b 49 13             	or     0x13(%rcx),%ecx
 140:	02 17                	add    (%rdi),%dl
 142:	b7 42                	mov    $0x42,%bh
 144:	17                   	(bad)  
 145:	00 00                	add    %al,(%rax)
 147:	18 0b                	sbb    %cl,(%rbx)
 149:	01 55 17             	add    %edx,0x17(%rbp)
 14c:	01 13                	add    %edx,(%rbx)
 14e:	00 00                	add    %al,(%rax)
 150:	19 0b                	sbb    %ecx,(%rbx)
 152:	01 11                	add    %edx,(%rcx)
 154:	01 12                	add    %edx,(%rdx)
 156:	07                   	(bad)  
 157:	00 00                	add    %al,(%rax)
 159:	1a 01                	sbb    (%rcx),%al
 15b:	01 49 13             	add    %ecx,0x13(%rcx)
 15e:	01 13                	add    %edx,(%rbx)
 160:	00 00                	add    %al,(%rax)
 162:	1b 21                	sbb    (%rcx),%esp
 164:	00 49 13             	add    %cl,0x13(%rcx)
 167:	2f                   	(bad)  
 168:	0b 00                	or     (%rax),%eax
 16a:	00 1c 2e             	add    %bl,(%rsi,%rbp,1)
 16d:	01 3f                	add    %edi,(%rdi)
 16f:	19 03                	sbb    %eax,(%rbx)
 171:	0e                   	(bad)  
 172:	3a 0b                	cmp    (%rbx),%cl
 174:	3b 0b                	cmp    (%rbx),%ecx
 176:	39 0b                	cmp    %ecx,(%rbx)
 178:	27                   	(bad)  
 179:	19 49 13             	sbb    %ecx,0x13(%rcx)
 17c:	20 0b                	and    %cl,(%rbx)
 17e:	01 13                	add    %edx,(%rbx)
 180:	00 00                	add    %al,(%rax)
 182:	1d 05 00 03 08       	sbb    $0x8030005,%eax
 187:	3a 0b                	cmp    (%rbx),%cl
 189:	3b 0b                	cmp    (%rbx),%ecx
 18b:	39 0b                	cmp    %ecx,(%rbx)
 18d:	49 13 00             	adc    (%r8),%rax
 190:	00 1e                	add    %bl,(%rsi)
 192:	34 00                	xor    $0x0,%al
 194:	03 08                	add    (%rax),%ecx
 196:	3a 0b                	cmp    (%rbx),%cl
 198:	3b 0b                	cmp    (%rbx),%ecx
 19a:	39 0b                	cmp    %ecx,(%rbx)
 19c:	49 13 00             	adc    (%r8),%rax
 19f:	00 1f                	add    %bl,(%rdi)
 1a1:	0b 01                	or     (%rcx),%eax
 1a3:	01 13                	add    %edx,(%rbx)
 1a5:	00 00                	add    %al,(%rax)
 1a7:	20 0b                	and    %cl,(%rbx)
 1a9:	01 00                	add    %eax,(%rax)
 1ab:	00 21                	add    %ah,(%rcx)
 1ad:	2e 01 03             	add    %eax,%cs:(%rbx)
 1b0:	0e                   	(bad)  
 1b1:	3a 0b                	cmp    (%rbx),%cl
 1b3:	3b 0b                	cmp    (%rbx),%ecx
 1b5:	39 0b                	cmp    %ecx,(%rbx)
 1b7:	27                   	(bad)  
 1b8:	19 20                	sbb    %esp,(%rax)
 1ba:	0b 01                	or     (%rcx),%eax
 1bc:	13 00                	adc    (%rax),%eax
 1be:	00 22                	add    %ah,(%rdx)
 1c0:	89 82 01 01 11 01    	mov    %eax,0x1110101(%rdx)
 1c6:	95                   	xchg   %eax,%ebp
 1c7:	42 19 31             	rex.X sbb %esi,(%rcx)
 1ca:	13 01                	adc    (%rcx),%eax
 1cc:	13 00                	adc    (%rax),%eax
 1ce:	00 23                	add    %ah,(%rbx)
 1d0:	2e 01 31             	add    %esi,%cs:(%rcx)
 1d3:	13 11                	adc    (%rcx),%edx
 1d5:	01 12                	add    %edx,(%rdx)
 1d7:	07                   	(bad)  
 1d8:	40 18 97 42 19 01 13 	sbb    %dl,0x13011942(%rdi)
 1df:	00 00                	add    %al,(%rax)
 1e1:	24 05                	and    $0x5,%al
 1e3:	00 31                	add    %dh,(%rcx)
 1e5:	13 02                	adc    (%rdx),%eax
 1e7:	18 00                	sbb    %al,(%rax)
 1e9:	00 25 0b 01 31 13    	add    %ah,0x1331010b(%rip)        # 133102fa <_end+0x1330b2a2>
 1ef:	55                   	push   %rbp
 1f0:	17                   	(bad)  
 1f1:	01 13                	add    %edx,(%rbx)
 1f3:	00 00                	add    %al,(%rax)
 1f5:	26 1d 01 31 13 52    	es sbb $0x52133101,%eax
 1fb:	01 b8 42 05 55 17    	add    %edi,0x17550542(%rax)
 201:	58                   	pop    %rax
 202:	0b 59 0b             	or     0xb(%rcx),%ebx
 205:	57                   	push   %rdi
 206:	0b 00                	or     (%rax),%eax
 208:	00 27                	add    %ah,(%rdi)
 20a:	2e 00 3f             	add    %bh,%cs:(%rdi)
 20d:	19 3c 19             	sbb    %edi,(%rcx,%rbx,1)
 210:	6e                   	outsb  %ds:(%rsi),(%dx)
 211:	0e                   	(bad)  
 212:	03 0e                	add    (%rsi),%ecx
 214:	3a 0b                	cmp    (%rbx),%cl
 216:	3b 05 39 0b 00 00    	cmp    0xb39(%rip),%eax        # d55 <__abi_tag+0xa6d>
 21c:	28 2e                	sub    %ch,(%rsi)
 21e:	00 3f                	add    %bh,(%rdi)
 220:	19 3c 19             	sbb    %edi,(%rcx,%rbx,1)
 223:	6e                   	outsb  %ds:(%rsi),(%dx)
 224:	0e                   	(bad)  
 225:	03 0e                	add    (%rsi),%ecx
 227:	3a 0b                	cmp    (%rbx),%cl
 229:	3b 0b                	cmp    (%rbx),%ecx
 22b:	39 0b                	cmp    %ecx,(%rbx)
 22d:	00 00                	add    %al,(%rax)
	...

Déassemblage de la section .debug_line :

0000000000000000 <.debug_line>:
       0:	c1 12 00             	rcll   $0x0,(%rdx)
       3:	00 03                	add    %al,(%rbx)
       5:	00 c6                	add    %al,%dh
       7:	03 00                	add    (%rax),%eax
       9:	00 01                	add    %al,(%rcx)
       b:	01 fb                	add    %edi,%ebx
       d:	0e                   	(bad)  
       e:	0d 00 01 01 01       	or     $0x1010100,%eax
      13:	01 00                	add    %eax,(%rax)
      15:	00 00                	add    %al,(%rax)
      17:	01 00                	add    %eax,(%rax)
      19:	00 01                	add    %al,(%rcx)
      1b:	2f                   	(bad)  
      1c:	75 73                	jne    91 <__abi_tag-0x257>
      1e:	72 2f                	jb     4f <__abi_tag-0x299>
      20:	69 6e 63 6c 75 64 65 	imul   $0x6564756c,0x63(%rsi),%ebp
      27:	00 2f                	add    %ch,(%rdi)
      29:	75 73                	jne    9e <__abi_tag-0x24a>
      2b:	72 2f                	jb     5c <__abi_tag-0x28c>
      2d:	69 6e 63 6c 75 64 65 	imul   $0x6564756c,0x63(%rsi),%ebp
      34:	2f                   	(bad)  
      35:	62                   	(bad)  
      36:	69 74 73 00 2f 75 73 	imul   $0x7273752f,0x0(%rbx,%rsi,2),%esi
      3d:	72 
      3e:	2f                   	(bad)  
      3f:	69 6e 63 6c 75 64 65 	imul   $0x6564756c,0x63(%rsi),%ebp
      46:	2f                   	(bad)  
      47:	73 79                	jae    c2 <__abi_tag-0x226>
      49:	73 00                	jae    4b <__abi_tag-0x29d>
      4b:	2f                   	(bad)  
      4c:	75 73                	jne    c1 <__abi_tag-0x227>
      4e:	72 2f                	jb     7f <__abi_tag-0x269>
      50:	69 6e 63 6c 75 64 65 	imul   $0x6564756c,0x63(%rsi),%ebp
      57:	2f                   	(bad)  
      58:	67 6e                	outsb  %ds:(%esi),(%dx)
      5a:	75 00                	jne    5c <__abi_tag-0x28c>
      5c:	2f                   	(bad)  
      5d:	75 73                	jne    d2 <__abi_tag-0x216>
      5f:	72 2f                	jb     90 <__abi_tag-0x258>
      61:	6c                   	insb   (%dx),%es:(%rdi)
      62:	69 62 2f 67 63 63 2f 	imul   $0x2f636367,0x2f(%rdx),%esp
      69:	78 38                	js     a3 <__abi_tag-0x245>
      6b:	36 5f                	ss pop %rdi
      6d:	36 34 2d             	ss xor $0x2d,%al
      70:	70 63                	jo     d5 <__abi_tag-0x213>
      72:	2d 6c 69 6e 75       	sub    $0x756e696c,%eax
      77:	78 2d                	js     a6 <__abi_tag-0x242>
      79:	67 6e                	outsb  %ds:(%esi),(%dx)
      7b:	75 2f                	jne    ac <__abi_tag-0x23c>
      7d:	31 30                	xor    %esi,(%rax)
      7f:	2e 32 2e             	xor    %cs:(%rsi),%ch
      82:	30 2f                	xor    %ch,(%rdi)
      84:	69 6e 63 6c 75 64 65 	imul   $0x6564756c,0x63(%rsi),%ebp
      8b:	00 2f                	add    %ch,(%rdi)
      8d:	75 73                	jne    102 <__abi_tag-0x1e6>
      8f:	72 2f                	jb     c0 <__abi_tag-0x228>
      91:	69 6e 63 6c 75 64 65 	imul   $0x6564756c,0x63(%rsi),%ebp
      98:	2f                   	(bad)  
      99:	62                   	(bad)  
      9a:	69 74 73 2f 74 79 70 	imul   $0x65707974,0x2f(%rbx,%rsi,2),%esi
      a1:	65 
      a2:	73 00                	jae    a4 <__abi_tag-0x244>
      a4:	00 64 6f 74          	add    %ah,0x74(%rdi,%rbp,2)
      a8:	70 72                	jo     11c <__abi_tag-0x1cc>
      aa:	6f                   	outsl  %ds:(%rsi),(%dx)
      ab:	64 2e 63 00          	fs movsxd %cs:(%rax),%eax
      af:	00 00                	add    %al,(%rax)
      b1:	00 73 74             	add    %dh,0x74(%rbx)
      b4:	64 6c                	fs insb (%dx),%es:(%rdi)
      b6:	69 62 2e 68 00 01 00 	imul   $0x10068,0x2e(%rdx),%esp
      bd:	00 73 74             	add    %dh,0x74(%rbx)
      c0:	64 69 6f 2e 68 00 01 	imul   $0x10068,%fs:0x2e(%rdi),%ebp
      c7:	00 
      c8:	00 73 74             	add    %dh,0x74(%rbx)
      cb:	64 63 2d 70 72 65 64 	movsxd %fs:0x64657270(%rip),%ebp        # 64657342 <_end+0x646522ea>
      d2:	65 66 2e 68 00 01    	gs cs pushw $0x100
      d8:	00 00                	add    %al,(%rax)
      da:	6c                   	insb   (%dx),%es:(%rdi)
      db:	69 62 63 2d 68 65 61 	imul   $0x6165682d,0x63(%rdx),%esp
      e2:	64 65 72 2d          	fs gs jb 113 <__abi_tag-0x1d5>
      e6:	73 74                	jae    15c <__abi_tag-0x18c>
      e8:	61                   	(bad)  
      e9:	72 74                	jb     15f <__abi_tag-0x189>
      eb:	2e 68 00 02 00 00    	cs pushq $0x200
      f1:	66 65 61             	data16 gs (bad) 
      f4:	74 75                	je     16b <__abi_tag-0x17d>
      f6:	72 65                	jb     15d <__abi_tag-0x18b>
      f8:	73 2e                	jae    128 <__abi_tag-0x1c0>
      fa:	68 00 01 00 00       	pushq  $0x100
      ff:	63 64 65 66          	movsxd 0x66(%rbp,%riz,2),%esp
     103:	73 2e                	jae    133 <__abi_tag-0x1b5>
     105:	68 00 03 00 00       	pushq  $0x300
     10a:	77 6f                	ja     17b <__abi_tag-0x16d>
     10c:	72 64                	jb     172 <__abi_tag-0x176>
     10e:	73 69                	jae    179 <__abi_tag-0x16f>
     110:	7a 65                	jp     177 <__abi_tag-0x171>
     112:	2e 68 00 02 00 00    	cs pushq $0x200
     118:	6c                   	insb   (%dx),%es:(%rdi)
     119:	6f                   	outsl  %ds:(%rsi),(%dx)
     11a:	6e                   	outsb  %ds:(%rsi),(%dx)
     11b:	67 2d 64 6f 75 62    	addr32 sub $0x62756f64,%eax
     121:	6c                   	insb   (%dx),%es:(%rdi)
     122:	65 2e 68 00 02 00 00 	gs cs pushq $0x200
     129:	73 74                	jae    19f <__abi_tag-0x149>
     12b:	75 62                	jne    18f <__abi_tag-0x159>
     12d:	73 2e                	jae    15d <__abi_tag-0x18b>
     12f:	68 00 04 00 00       	pushq  $0x400
     134:	73 74                	jae    1aa <__abi_tag-0x13e>
     136:	75 62                	jne    19a <__abi_tag-0x14e>
     138:	73 2d                	jae    167 <__abi_tag-0x181>
     13a:	36 34 2e             	ss xor $0x2e,%al
     13d:	68 00 04 00 00       	pushq  $0x400
     142:	73 74                	jae    1b8 <__abi_tag-0x130>
     144:	64 64 65 66 2e 68 00 	fs fs gs cs pushw $0x500
     14b:	05 
     14c:	00 00                	add    %al,(%rax)
     14e:	77 61                	ja     1b1 <__abi_tag-0x137>
     150:	69 74 66 6c 61 67 73 	imul   $0x2e736761,0x6c(%rsi,%riz,2),%esi
     157:	2e 
     158:	68 00 02 00 00       	pushq  $0x200
     15d:	77 61                	ja     1c0 <__abi_tag-0x128>
     15f:	69 74 73 74 61 74 75 	imul   $0x73757461,0x74(%rbx,%rsi,2),%esi
     166:	73 
     167:	2e 68 00 02 00 00    	cs pushq $0x200
     16d:	66 6c                	data16 insb (%dx),%es:(%rdi)
     16f:	6f                   	outsl  %ds:(%rsi),(%dx)
     170:	61                   	(bad)  
     171:	74 6e                	je     1e1 <__abi_tag-0x107>
     173:	2e 68 00 02 00 00    	cs pushq $0x200
     179:	66 6c                	data16 insb (%dx),%es:(%rdi)
     17b:	6f                   	outsl  %ds:(%rsi),(%dx)
     17c:	61                   	(bad)  
     17d:	74 6e                	je     1ed <__abi_tag-0xfb>
     17f:	2d 63 6f 6d 6d       	sub    $0x6d6d6f63,%eax
     184:	6f                   	outsl  %ds:(%rsi),(%dx)
     185:	6e                   	outsb  %ds:(%rsi),(%dx)
     186:	2e 68 00 02 00 00    	cs pushq $0x200
     18c:	74 79                	je     207 <__abi_tag-0xe1>
     18e:	70 65                	jo     1f5 <__abi_tag-0xf3>
     190:	73 2e                	jae    1c0 <__abi_tag-0x128>
     192:	68 00 03 00 00       	pushq  $0x300
     197:	74 79                	je     212 <__abi_tag-0xd6>
     199:	70 65                	jo     200 <__abi_tag-0xe8>
     19b:	73 2e                	jae    1cb <__abi_tag-0x11d>
     19d:	68 00 02 00 00       	pushq  $0x200
     1a2:	74 69                	je     20d <__abi_tag-0xdb>
     1a4:	6d                   	insl   (%dx),%es:(%rdi)
     1a5:	65 73 69             	gs jae 211 <__abi_tag-0xd7>
     1a8:	7a 65                	jp     20f <__abi_tag-0xd9>
     1aa:	2e 68 00 02 00 00    	cs pushq $0x200
     1b0:	74 79                	je     22b <__abi_tag-0xbd>
     1b2:	70 65                	jo     219 <__abi_tag-0xcf>
     1b4:	73 69                	jae    21f <__abi_tag-0xc9>
     1b6:	7a 65                	jp     21d <__abi_tag-0xcb>
     1b8:	73 2e                	jae    1e8 <__abi_tag-0x100>
     1ba:	68 00 02 00 00       	pushq  $0x200
     1bf:	74 69                	je     22a <__abi_tag-0xbe>
     1c1:	6d                   	insl   (%dx),%es:(%rdi)
     1c2:	65 36 34 2e          	gs ss xor $0x2e,%al
     1c6:	68 00 02 00 00       	pushq  $0x200
     1cb:	63 6c 6f 63          	movsxd 0x63(%rdi,%rbp,2),%ebp
     1cf:	6b 5f 74 2e          	imul   $0x2e,0x74(%rdi),%ebx
     1d3:	68 00 06 00 00       	pushq  $0x600
     1d8:	63 6c 6f 63          	movsxd 0x63(%rdi,%rbp,2),%ebp
     1dc:	6b 69 64 5f          	imul   $0x5f,0x64(%rcx),%ebp
     1e0:	74 2e                	je     210 <__abi_tag-0xd8>
     1e2:	68 00 06 00 00       	pushq  $0x600
     1e7:	74 69                	je     252 <__abi_tag-0x96>
     1e9:	6d                   	insl   (%dx),%es:(%rdi)
     1ea:	65 5f                	gs pop %rdi
     1ec:	74 2e                	je     21c <__abi_tag-0xcc>
     1ee:	68 00 06 00 00       	pushq  $0x600
     1f3:	74 69                	je     25e <__abi_tag-0x8a>
     1f5:	6d                   	insl   (%dx),%es:(%rdi)
     1f6:	65 72 5f             	gs jb  258 <__abi_tag-0x90>
     1f9:	74 2e                	je     229 <__abi_tag-0xbf>
     1fb:	68 00 06 00 00       	pushq  $0x600
     200:	73 74                	jae    276 <__abi_tag-0x72>
     202:	64 69 6e 74 2d 69 6e 	imul   $0x746e692d,%fs:0x74(%rsi),%ebp
     209:	74 
     20a:	6e                   	outsb  %ds:(%rsi),(%dx)
     20b:	2e 68 00 02 00 00    	cs pushq $0x200
     211:	65 6e                	outsb  %gs:(%rsi),(%dx)
     213:	64 69 61 6e 2e 68 00 	imul   $0x100682e,%fs:0x6e(%rcx),%esp
     21a:	01 
     21b:	00 00                	add    %al,(%rax)
     21d:	65 6e                	outsb  %gs:(%rsi),(%dx)
     21f:	64 69 61 6e 2e 68 00 	imul   $0x200682e,%fs:0x6e(%rcx),%esp
     226:	02 
     227:	00 00                	add    %al,(%rax)
     229:	65 6e                	outsb  %gs:(%rsi),(%dx)
     22b:	64 69 61 6e 6e 65 73 	imul   $0x7373656e,%fs:0x6e(%rcx),%esp
     232:	73 
     233:	2e 68 00 02 00 00    	cs pushq $0x200
     239:	62                   	(bad)  
     23a:	79 74                	jns    2b0 <__abi_tag-0x38>
     23c:	65 73 77             	gs jae 2b6 <__abi_tag-0x32>
     23f:	61                   	(bad)  
     240:	70 2e                	jo     270 <__abi_tag-0x78>
     242:	68 00 02 00 00       	pushq  $0x200
     247:	75 69                	jne    2b2 <__abi_tag-0x36>
     249:	6e                   	outsb  %ds:(%rsi),(%dx)
     24a:	74 6e                	je     2ba <__abi_tag-0x2e>
     24c:	2d 69 64 65 6e       	sub    $0x6e656469,%eax
     251:	74 69                	je     2bc <__abi_tag-0x2c>
     253:	74 79                	je     2ce <__abi_tag-0x1a>
     255:	2e 68 00 02 00 00    	cs pushq $0x200
     25b:	73 65                	jae    2c2 <__abi_tag-0x26>
     25d:	6c                   	insb   (%dx),%es:(%rdi)
     25e:	65 63 74 2e 68       	movsxd %gs:0x68(%rsi,%rbp,1),%esi
     263:	00 03                	add    %al,(%rbx)
     265:	00 00                	add    %al,(%rax)
     267:	73 65                	jae    2ce <__abi_tag-0x1a>
     269:	6c                   	insb   (%dx),%es:(%rdi)
     26a:	65 63 74 2e 68       	movsxd %gs:0x68(%rsi,%rbp,1),%esi
     26f:	00 02                	add    %al,(%rdx)
     271:	00 00                	add    %al,(%rax)
     273:	73 69                	jae    2de <__abi_tag-0xa>
     275:	67 73 65             	addr32 jae 2dd <__abi_tag-0xb>
     278:	74 5f                	je     2d9 <__abi_tag-0xf>
     27a:	74 2e                	je     2aa <__abi_tag-0x3e>
     27c:	68 00 06 00 00       	pushq  $0x600
     281:	5f                   	pop    %rdi
     282:	5f                   	pop    %rdi
     283:	73 69                	jae    2ee <__abi_tag+0x6>
     285:	67 73 65             	addr32 jae 2ed <__abi_tag+0x5>
     288:	74 5f                	je     2e9 <__abi_tag+0x1>
     28a:	74 2e                	je     2ba <__abi_tag-0x2e>
     28c:	68 00 06 00 00       	pushq  $0x600
     291:	73 74                	jae    307 <__abi_tag+0x1f>
     293:	72 75                	jb     30a <__abi_tag+0x22>
     295:	63 74 5f 74          	movsxd 0x74(%rdi,%rbx,2),%esi
     299:	69 6d 65 76 61 6c 2e 	imul   $0x2e6c6176,0x65(%rbp),%ebp
     2a0:	68 00 06 00 00       	pushq  $0x600
     2a5:	73 74                	jae    31b <__abi_tag+0x33>
     2a7:	72 75                	jb     31e <__abi_tag+0x36>
     2a9:	63 74 5f 74          	movsxd 0x74(%rdi,%rbx,2),%esi
     2ad:	69 6d 65 73 70 65 63 	imul   $0x63657073,0x65(%rbp),%ebp
     2b4:	2e 68 00 06 00 00    	cs pushq $0x600
     2ba:	70 74                	jo     330 <__abi_tag+0x48>
     2bc:	68 72 65 61 64       	pushq  $0x64616572
     2c1:	74 79                	je     33c <__abi_tag+0x54>
     2c3:	70 65                	jo     32a <__abi_tag+0x42>
     2c5:	73 2e                	jae    2f5 <__abi_tag+0xd>
     2c7:	68 00 02 00 00       	pushq  $0x200
     2cc:	74 68                	je     336 <__abi_tag+0x4e>
     2ce:	72 65                	jb     335 <__abi_tag+0x4d>
     2d0:	61                   	(bad)  
     2d1:	64 2d 73 68 61 72    	fs sub $0x72616873,%eax
     2d7:	65 64 2d 74 79 70 65 	gs fs sub $0x65707974,%eax
     2de:	73 2e                	jae    30e <__abi_tag+0x26>
     2e0:	68 00 02 00 00       	pushq  $0x200
     2e5:	70 74                	jo     35b <__abi_tag+0x73>
     2e7:	68 72 65 61 64       	pushq  $0x64616572
     2ec:	74 79                	je     367 <__abi_tag+0x7f>
     2ee:	70 65                	jo     355 <__abi_tag+0x6d>
     2f0:	73 2d                	jae    31f <__abi_tag+0x37>
     2f2:	61                   	(bad)  
     2f3:	72 63                	jb     358 <__abi_tag+0x70>
     2f5:	68 2e 68 00 02       	pushq  $0x200682e
     2fa:	00 00                	add    %al,(%rax)
     2fc:	73 74                	jae    372 <__abi_tag+0x8a>
     2fe:	72 75                	jb     375 <__abi_tag+0x8d>
     300:	63 74 5f 6d          	movsxd 0x6d(%rdi,%rbx,2),%esi
     304:	75 74                	jne    37a <__abi_tag+0x92>
     306:	65 78 2e             	gs js  337 <__abi_tag+0x4f>
     309:	68 00 02 00 00       	pushq  $0x200
     30e:	73 74                	jae    384 <__abi_tag+0x9c>
     310:	72 75                	jb     387 <__abi_tag+0x9f>
     312:	63 74 5f 72          	movsxd 0x72(%rdi,%rbx,2),%esi
     316:	77 6c                	ja     384 <__abi_tag+0x9c>
     318:	6f                   	outsl  %ds:(%rsi),(%dx)
     319:	63 6b 2e             	movsxd 0x2e(%rbx),%ebp
     31c:	68 00 02 00 00       	pushq  $0x200
     321:	61                   	(bad)  
     322:	6c                   	insb   (%dx),%es:(%rdi)
     323:	6c                   	insb   (%dx),%es:(%rdi)
     324:	6f                   	outsl  %ds:(%rsi),(%dx)
     325:	63 61 2e             	movsxd 0x2e(%rcx),%esp
     328:	68 00 01 00 00       	pushq  $0x100
     32d:	73 74                	jae    3a3 <__abi_tag+0xbb>
     32f:	64 6c                	fs insb (%dx),%es:(%rdi)
     331:	69 62 2d 62 73 65 61 	imul   $0x61657362,0x2d(%rdx),%esp
     338:	72 63                	jb     39d <__abi_tag+0xb5>
     33a:	68 2e 68 00 02       	pushq  $0x200682e
     33f:	00 00                	add    %al,(%rax)
     341:	73 74                	jae    3b7 <__abi_tag+0xcf>
     343:	64 6c                	fs insb (%dx),%es:(%rdi)
     345:	69 62 2d 66 6c 6f 61 	imul   $0x616f6c66,0x2d(%rdx),%esp
     34c:	74 2e                	je     37c <__abi_tag+0x94>
     34e:	68 00 02 00 00       	pushq  $0x200
     353:	73 74                	jae    3c9 <__abi_tag+0xe1>
     355:	64 61                	fs (bad) 
     357:	72 67                	jb     3c0 <__abi_tag+0xd8>
     359:	2e 68 00 05 00 00    	cs pushq $0x500
     35f:	5f                   	pop    %rdi
     360:	5f                   	pop    %rdi
     361:	66 70 6f             	data16 jo 3d3 <__abi_tag+0xeb>
     364:	73 5f                	jae    3c5 <__abi_tag+0xdd>
     366:	74 2e                	je     396 <__abi_tag+0xae>
     368:	68 00 06 00 00       	pushq  $0x600
     36d:	5f                   	pop    %rdi
     36e:	5f                   	pop    %rdi
     36f:	6d                   	insl   (%dx),%es:(%rdi)
     370:	62 73 74 61 74       	(bad)
     375:	65 5f                	gs pop %rdi
     377:	74 2e                	je     3a7 <__abi_tag+0xbf>
     379:	68 00 06 00 00       	pushq  $0x600
     37e:	5f                   	pop    %rdi
     37f:	5f                   	pop    %rdi
     380:	66 70 6f             	data16 jo 3f2 <__abi_tag+0x10a>
     383:	73 36                	jae    3bb <__abi_tag+0xd3>
     385:	34 5f                	xor    $0x5f,%al
     387:	74 2e                	je     3b7 <__abi_tag+0xcf>
     389:	68 00 06 00 00       	pushq  $0x600
     38e:	5f                   	pop    %rdi
     38f:	5f                   	pop    %rdi
     390:	46                   	rex.RX
     391:	49                   	rex.WB
     392:	4c                   	rex.WR
     393:	45                   	rex.RB
     394:	2e 68 00 06 00 00    	cs pushq $0x600
     39a:	46                   	rex.RX
     39b:	49                   	rex.WB
     39c:	4c                   	rex.WR
     39d:	45                   	rex.RB
     39e:	2e 68 00 06 00 00    	cs pushq $0x600
     3a4:	73 74                	jae    41a <__abi_tag+0x132>
     3a6:	72 75                	jb     41d <__abi_tag+0x135>
     3a8:	63 74 5f 46          	movsxd 0x46(%rdi,%rbx,2),%esi
     3ac:	49                   	rex.WB
     3ad:	4c                   	rex.WR
     3ae:	45                   	rex.RB
     3af:	2e 68 00 06 00 00    	cs pushq $0x600
     3b5:	73 74                	jae    42b <__abi_tag+0x143>
     3b7:	64 69 6f 5f 6c 69 6d 	imul   $0x2e6d696c,%fs:0x5f(%rdi),%ebp
     3be:	2e 
     3bf:	68 00 02 00 00       	pushq  $0x200
     3c4:	73 74                	jae    43a <__abi_tag+0x152>
     3c6:	64 69 6f 2e 68 00 02 	imul   $0x20068,%fs:0x2e(%rdi),%ebp
     3cd:	00 
     3ce:	00 00                	add    %al,(%rax)
     3d0:	05 01 00 09 02       	add    $0x2090001,%eax
     3d5:	30 15 00 00 00 00    	xor    %dl,0x0(%rip)        # 3db <__abi_tag+0xf3>
     3db:	00 00                	add    %al,(%rax)
     3dd:	1a 05 03 13 05 06    	sbb    0x6051303(%rip),%al        # 60516e6 <_end+0x604c68e>
     3e3:	06                   	(bad)  
     3e4:	01 05 03 06 5b 05    	add    %eax,0x55b0603(%rip)        # 55b09ed <_end+0x55ab995>
     3ea:	0a 06                	or     (%rsi),%al
     3ec:	01 4a 74             	add    %ecx,0x74(%rdx)
     3ef:	05 05 06 56 05       	add    $0x5560605,%eax
     3f4:	01 06                	add    %eax,(%rsi)
     3f6:	10 05 05 22 58 58    	adc    %al,0x58582205(%rip)        # 58582601 <_end+0x5857d5a9>
     3fc:	05 01 06 00 09       	add    $0x9000601,%eax
     401:	02 50 15             	add    0x15(%rax),%dl
     404:	00 00                	add    %al,(%rax)
     406:	00 00                	add    %al,(%rax)
     408:	00 00                	add    %al,(%rax)
     40a:	03 11                	add    (%rcx),%edx
     40c:	01 05 03 13 14 05    	add    %eax,0x5141303(%rip)        # 5141715 <_end+0x513c6bd>
     412:	08 01                	or     %al,(%rcx)
     414:	05 22 01 05 03       	add    $0x3050122,%eax
     419:	06                   	(bad)  
     41a:	01 05 0a f0 05 05    	add    %eax,0x505f00a(%rip)        # 505f42a <_end+0x505a3d2>
     420:	00 02                	add    %al,(%rdx)
     422:	04 03                	add    $0x3,%al
     424:	06                   	(bad)  
     425:	f5                   	cmc    
     426:	05 0f 00 02 04       	add    $0x402000f,%eax
     42b:	03 06                	add    (%rsi),%eax
     42d:	01 05 07 00 02 04    	add    %eax,0x4020007(%rip)        # 402043a <_end+0x401b3e2>
     433:	03 08                	add    (%rax),%ecx
     435:	58                   	pop    %rax
     436:	05 29 00 02 04       	add    $0x4020029,%eax
     43b:	03 06                	add    (%rsi),%eax
     43d:	81 05 22 00 02 04 03 	addl   $0x2000103,0x4020022(%rip)        # 4020469 <_end+0x401b411>
     444:	01 00 02 
     447:	04 03                	add    $0x3,%al
     449:	06                   	(bad)  
     44a:	e4 05                	in     $0x5,%al
     44c:	05 06 2f 05 0f       	add    $0xf052f06,%eax
     451:	06                   	(bad)  
     452:	01 05 07 9e 05 29    	add    %eax,0x29059e07(%rip)        # 2905a25f <_end+0x29055207>
     458:	06                   	(bad)  
     459:	49 05 22 01 06 01    	rex.WB add $0x1060122,%rax
     45f:	05 01 16 05 0a       	add    $0xa051601,%eax
     464:	03 7a ac             	add    -0x54(%rdx),%edi
     467:	05 03 06 4f 05       	add    $0x54f0603,%eax
     46c:	01 06                	add    %eax,(%rsi)
     46e:	13 05 1b 54 05 0a    	adc    0xa05541b(%rip),%eax        # a05588f <_end+0xa050837>
     474:	2c 05                	sub    $0x5,%al
     476:	01 06                	add    %eax,(%rsi)
     478:	03 0a                	add    (%rdx),%ecx
     47a:	c8 05 03 13          	enterq $0x305,$0x13
     47e:	15 05 06 06 01       	adc    $0x1060605,%eax
     483:	05 26 06 03 0e       	add    $0xe030626,%eax
     488:	ba 05 07 06 01       	mov    $0x1060705,%edx
     48d:	c8 08 66 05          	enterq $0x6608,$0x5
     491:	0a 03                	or     (%rbx),%al
     493:	6f                   	outsl  %ds:(%rsi),(%dx)
     494:	01 05 04 00 02 04    	add    %eax,0x4020004(%rip)        # 402049e <_end+0x401b446>
     49a:	03 06                	add    (%rsi),%eax
     49c:	03 13                	add    (%rbx),%edx
     49e:	f2 05 0d 00 02 04    	repnz add $0x402000d,%eax
     4a4:	03 06                	add    (%rsi),%eax
     4a6:	01 05 14 00 02 04    	add    %eax,0x4020014(%rip)        # 40204c0 <_end+0x401b468>
     4ac:	03 58 05             	add    0x5(%rax),%ebx
     4af:	0d 00 02 04 03       	or     $0x3040200,%eax
     4b4:	58                   	pop    %rax
     4b5:	05 14 00 02 04       	add    $0x4020014,%eax
     4ba:	03 66 05             	add    0x5(%rsi),%esp
     4bd:	11 00                	adc    %eax,(%rax)
     4bf:	02 04 03             	add    (%rbx,%rax,1),%al
     4c2:	66 05 0d 00          	add    $0xd,%ax
     4c6:	02 04 03             	add    (%rbx,%rax,1),%al
     4c9:	4a 05 09 00 02 04    	rex.WX add $0x4020009,%rax
     4cf:	03 ba 00 02 04 03    	add    0x3040200(%rdx),%edi
     4d5:	4a 05 04 00 02 04    	rex.WX add $0x4020004,%rax
     4db:	03 06                	add    (%rsi),%eax
     4dd:	83 05 14 00 02 04 03 	addl   $0x3,0x4020014(%rip)        # 40204f8 <_end+0x401b4a0>
     4e4:	06                   	(bad)  
     4e5:	11 05 15 00 02 04    	adc    %eax,0x4020015(%rip)        # 4020500 <_end+0x401b4a8>
     4eb:	03 f3                	add    %ebx,%esi
     4ed:	05 09 00 02 04       	add    $0x4020009,%eax
     4f2:	03 4a 00             	add    0x0(%rdx),%ecx
     4f5:	02 04 03             	add    (%rbx,%rax,1),%al
     4f8:	4a 05 2d 00 02 04    	rex.WX add $0x402002d,%rax
     4fe:	03 06                	add    (%rsi),%eax
     500:	7f 05                	jg     507 <__abi_tag+0x21f>
     502:	26 00 02             	add    %al,%es:(%rdx)
     505:	04 03                	add    $0x3,%al
     507:	01 05 04 08 4c 05    	add    %eax,0x54c0804(%rip)        # 54c0d11 <_end+0x54bbcb9>
     50d:	11 06                	adc    %eax,(%rsi)
     50f:	01 05 09 9e 05 04    	add    %eax,0x4059e09(%rip)        # 405a31e <_end+0x40552c6>
     515:	06                   	(bad)  
     516:	4b 05 15 06 01 05    	rex.WXB add $0x5010615,%rax
     51c:	09 ba 05 2d 06 47    	or     %edi,0x47062d05(%rdx)
     522:	05 26 01 06 01       	add    $0x1060126,%eax
     527:	05 13 18 4a 05       	add    $0x54a1813,%eax
     52c:	07                   	(bad)  
     52d:	06                   	(bad)  
     52e:	4a 05 01 06 14 05    	rex.WX add $0x5140601,%rax
     534:	08 06                	or     %al,(%rsi)
     536:	03 65 3c             	add    0x3c(%rbp),%esp
     539:	05 07 19 14 05       	add    $0x5141907,%eax
     53e:	0c 01                	or     $0x1,%al
     540:	05 26 01 05 07       	add    $0x7050126,%eax
     545:	06                   	(bad)  
     546:	01 05 0a 03 79 02    	add    %eax,0x279030a(%rip)        # 2790856 <_end+0x278b7fe>
     54c:	25 01 05 07 51       	and    $0x51070501,%eax
     551:	05 0a 03 79 58       	add    $0x5879030a,%eax
     556:	05 04 06 03 09       	add    $0x9030604,%eax
     55b:	08 20                	or     %ah,(%rax)
     55d:	05 14 06 01 05       	add    $0x5010614,%eax
     562:	0d 58 05 14 08       	or     $0x8140558,%eax
     567:	66 05 11 66          	add    $0x6611,%ax
     56b:	05 14 4a 05 15       	add    $0x15054a14,%eax
     570:	f3 05 09 49 4a 4b    	repz add $0x4b4a4909,%eax
     576:	4a                   	rex.WX
     577:	49 05 04 06 4b 05    	rex.WB add $0x54b0604,%rax
     57d:	09 06                	or     %eax,(%rsi)
     57f:	01 05 2f 06 47 05    	add    %eax,0x547062f(%rip)        # 5470bb4 <_end+0x546bb5c>
     585:	26 01 05 04 08 4c 05 	add    %eax,%es:0x54c0804(%rip)        # 54c0d90 <_end+0x54bbd38>
     58c:	11 06                	adc    %eax,(%rsi)
     58e:	01 05 09 9e 05 04    	add    %eax,0x4059e09(%rip)        # 405a39d <_end+0x4055345>
     594:	06                   	(bad)  
     595:	4b 05 15 06 01 05    	rex.WXB add $0x5010615,%rax
     59b:	09 ba 05 2f 06 47    	or     %edi,0x47062f05(%rdx)
     5a1:	05 26 01 06 01       	add    $0x1060126,%eax
     5a6:	05 13 18 4a 05       	add    $0x54a1813,%eax
     5ab:	07                   	(bad)  
     5ac:	06                   	(bad)  
     5ad:	4a 05 23 06 01 05    	rex.WX add $0x5010623,%rax
     5b3:	1a ba 4a 3c 05 07    	sbb    0x7053c4a(%rdx),%bh
     5b9:	16                   	(bad)  
     5ba:	82                   	(bad)  
     5bb:	03 76 01             	add    0x1(%rsi),%esi
     5be:	66 05 0a 03          	add    $0x30a,%ax
     5c2:	79 01                	jns    5c5 <__abi_tag+0x2dd>
     5c4:	c8 05 1f 51          	enterq $0x1f05,$0x51
     5c8:	05 0a 03 79 2e       	add    $0x2e79030a,%eax
     5cd:	05 01 06 03 1d       	add    $0x1d030601,%eax
     5d2:	e4 05                	in     $0x5,%al
     5d4:	03 13                	add    (%rbx),%edx
     5d6:	13 05 16 06 01 05    	adc    0x5010616(%rip),%eax        # 5010bf2 <_end+0x500bb9a>
     5dc:	01 3a                	add    %edi,(%rdx)
     5de:	05 16 3e 05 03       	add    $0x3053e16,%eax
     5e3:	06                   	(bad)  
     5e4:	4c 05 08 01 05 22    	rex.WR add $0x22050108,%rax
     5ea:	01 05 03 06 01 05    	add    %eax,0x5010603(%rip)        # 5010bf3 <_end+0x500bb9b>
     5f0:	0a 02                	or     (%rdx),%al
     5f2:	25 0f ac 05 07       	and    $0x705ac0f,%eax
     5f7:	00 02                	add    %al,(%rdx)
     5f9:	04 03                	add    $0x3,%al
     5fb:	06                   	(bad)  
     5fc:	08 cd                	or     %cl,%ch
     5fe:	05 10 00 02 04       	add    $0x4020010,%eax
     603:	03 06                	add    (%rsi),%eax
     605:	01 05 17 00 02 04    	add    %eax,0x4020017(%rip)        # 4020622 <_end+0x401b5ca>
     60b:	03 4a 05             	add    0x5(%rdx),%ecx
     60e:	10 00                	adc    %al,(%rax)
     610:	02 04 03             	add    (%rbx,%rax,1),%al
     613:	ba 05 17 00 02       	mov    $0x2001705,%edx
     618:	04 03                	add    $0x3,%al
     61a:	66 05 10 00          	add    $0x10,%ax
     61e:	02 04 03             	add    (%rbx,%rax,1),%al
     621:	66 05 17 00          	add    $0x17,%ax
     625:	02 04 03             	add    (%rbx,%rax,1),%al
     628:	58                   	pop    %rax
     629:	05 10 00 02 04       	add    $0x4020010,%eax
     62e:	03 58 05             	add    0x5(%rax),%ebx
     631:	17                   	(bad)  
     632:	00 02                	add    %al,(%rdx)
     634:	04 03                	add    $0x3,%al
     636:	58                   	pop    %rax
     637:	05 10 00 02 04       	add    $0x4020010,%eax
     63c:	03 58 05             	add    0x5(%rax),%ebx
     63f:	17                   	(bad)  
     640:	00 02                	add    %al,(%rdx)
     642:	04 03                	add    $0x3,%al
     644:	66 05 10 00          	add    $0x10,%ax
     648:	02 04 03             	add    (%rbx,%rax,1),%al
     64b:	66 05 17 00          	add    $0x17,%ax
     64f:	02 04 03             	add    (%rbx,%rax,1),%al
     652:	90                   	nop
     653:	05 10 00 02 04       	add    $0x4020010,%eax
     658:	03 4a 05             	add    0x5(%rdx),%ecx
     65b:	17                   	(bad)  
     65c:	00 02                	add    %al,(%rdx)
     65e:	04 03                	add    $0x3,%al
     660:	58                   	pop    %rax
     661:	05 10 00 02 04       	add    $0x4020010,%eax
     666:	03 58 05             	add    0x5(%rax),%ebx
     669:	17                   	(bad)  
     66a:	00 02                	add    %al,(%rdx)
     66c:	04 03                	add    $0x3,%al
     66e:	66 05 10 00          	add    $0x10,%ax
     672:	02 04 03             	add    (%rbx,%rax,1),%al
     675:	58                   	pop    %rax
     676:	05 17 00 02 04       	add    $0x4020017,%eax
     67b:	03 66 05             	add    0x5(%rsi),%esp
     67e:	10 00                	adc    %al,(%rax)
     680:	02 04 03             	add    (%rbx,%rax,1),%al
     683:	58                   	pop    %rax
     684:	05 14 00 02 04       	add    $0x4020014,%eax
     689:	03 58 05             	add    0x5(%rax),%ebx
     68c:	17                   	(bad)  
     68d:	00 02                	add    %al,(%rdx)
     68f:	04 03                	add    $0x3,%al
     691:	4a 05 18 00 02 04    	rex.WX add $0x4020018,%rax
     697:	03 d8                	add    %eax,%ebx
     699:	05 17 00 02 04       	add    $0x4020017,%eax
     69e:	03 48 05             	add    0x5(%rax),%ecx
     6a1:	0c 00                	or     $0x0,%al
     6a3:	02 04 03             	add    (%rbx,%rax,1),%al
     6a6:	82                   	(bad)  
     6a7:	00 02                	add    %al,(%rdx)
     6a9:	04 03                	add    $0x3,%al
     6ab:	58                   	pop    %rax
     6ac:	00 02                	add    %al,(%rdx)
     6ae:	04 03                	add    $0x3,%al
     6b0:	4c 00 02             	rex.WR add %r8b,(%rdx)
     6b3:	04 03                	add    $0x3,%al
     6b5:	58                   	pop    %rax
     6b6:	00 02                	add    %al,(%rdx)
     6b8:	04 03                	add    $0x3,%al
     6ba:	48 05 07 00 02 04    	add    $0x4020007,%rax
     6c0:	03 06                	add    (%rsi),%eax
     6c2:	59                   	pop    %rcx
     6c3:	05 10 00 02 04       	add    $0x4020010,%eax
     6c8:	03 06                	add    (%rsi),%eax
     6ca:	11 05 0c 00 02 04    	adc    %eax,0x402000c(%rip)        # 40206dc <_end+0x401b684>
     6d0:	03 d8                	add    %eax,%ebx
     6d2:	05 18 00 02 04       	add    $0x4020018,%eax
     6d7:	03 57 05             	add    0x5(%rdi),%edx
     6da:	17                   	(bad)  
     6db:	00 02                	add    %al,(%rdx)
     6dd:	04 03                	add    $0x3,%al
     6df:	49 05 18 00 02 04    	rex.WB add $0x4020018,%rax
     6e5:	03 4d 05             	add    0x5(%rbp),%ecx
     6e8:	0c 00                	or     $0x0,%al
     6ea:	02 04 03             	add    (%rbx,%rax,1),%al
     6ed:	48 00 02             	rex.W add %al,(%rdx)
     6f0:	04 03                	add    $0x3,%al
     6f2:	4a 00 02             	rex.WX add %al,(%rdx)
     6f5:	04 03                	add    $0x3,%al
     6f7:	4c 00 02             	rex.WR add %r8b,(%rdx)
     6fa:	04 03                	add    $0x3,%al
     6fc:	58                   	pop    %rax
     6fd:	00 02                	add    %al,(%rdx)
     6ff:	04 03                	add    $0x3,%al
     701:	48 05 07 00 02 04    	add    $0x4020007,%rax
     707:	03 06                	add    (%rsi),%eax
     709:	4b 00 02             	rex.WXB add %al,(%r10)
     70c:	04 03                	add    $0x3,%al
     70e:	13 05 0c 00 02 04    	adc    0x402000c(%rip),%eax        # 4020720 <_end+0x401b6c8>
     714:	03 06                	add    (%rsi),%eax
     716:	01 05 29 00 02 04    	add    %eax,0x4020029(%rip)        # 4020745 <_end+0x401b6ed>
     71c:	03 06                	add    (%rsi),%eax
     71e:	53                   	push   %rbx
     71f:	05 22 00 02 04       	add    $0x4020022,%eax
     724:	03 01                	add    (%rcx),%eax
     726:	05 07 08 f4 05       	add    $0x5f40807,%eax
     72b:	14 06                	adc    $0x6,%al
     72d:	01 05 10 9e 05 0c    	add    %eax,0xc059e10(%rip)        # c05a543 <_end+0xc0554eb>
     733:	82                   	(bad)  
     734:	05 07 06 59 05       	add    $0x5590607,%eax
     739:	18 06                	sbb    %al,(%rsi)
     73b:	01 05 0c ba 05 07    	add    %eax,0x705ba0c(%rip)        # 705c14d <_end+0x70570f5>
     741:	06                   	(bad)  
     742:	4b 05 18 06 01 05    	rex.WXB add $0x5010618,%rax
     748:	0c ba                	or     $0xba,%al
     74a:	05 07 06 59 05       	add    $0x5590607,%eax
     74f:	18 06                	sbb    %al,(%rsi)
     751:	01 05 0c ba 05 29    	add    %eax,0x2905ba0c(%rip)        # 2905c163 <_end+0x2905710b>
     757:	06                   	(bad)  
     758:	53                   	push   %rbx
     759:	05 22 01 05 03       	add    $0x3050122,%eax
     75e:	1a 05 06 06 01 05    	sbb    0x5010606(%rip),%al        # 5010d6a <_end+0x500bd12>
     764:	03 06                	add    (%rsi),%eax
     766:	60                   	(bad)  
     767:	05 0f 06 01 05       	add    $0x501060f,%eax
     76c:	16                   	(bad)  
     76d:	90                   	nop
     76e:	05 1d 90 05 01       	add    $0x105901d,%eax
     773:	91                   	xchg   %eax,%ecx
     774:	05 07 06 03 79       	add    $0x79030607,%eax
     779:	2e 14 05             	cs adc $0x5,%al
     77c:	0c 01                	or     $0x1,%al
     77e:	05 2c 74 05 07       	add    $0x705742c,%eax
     783:	06                   	(bad)  
     784:	01 05 04 06 2f 05    	add    %eax,0x52f0604(%rip)        # 52f0d8e <_end+0x52ebd36>
     78a:	11 06                	adc    %eax,(%rsi)
     78c:	01 05 33 06 08 8f    	add    %eax,-0x70f7f9cd(%rip)        # ffffffff8f080dc5 <_end+0xffffffff8f07bd6d>
     792:	05 2c 01 05 04       	add    $0x405012c,%eax
     797:	13 05 09 06 01 58    	adc    0x58010609(%rip),%eax        # 58010da6 <_end+0x5800bd4e>
     79d:	05 33 06 08 1f       	add    $0x1f080633,%eax
     7a2:	05 2c 01 06 66       	add    $0x6606012c,%eax
     7a7:	05 03 06 0e 05       	add    $0x50e0603,%eax
     7ac:	06                   	(bad)  
     7ad:	06                   	(bad)  
     7ae:	01 05 07 06 5a 14    	add    %eax,0x145a0607(%rip)        # 145a0dbb <_end+0x1459bd63>
     7b4:	05 0c 01 05 1f       	add    $0x1f05010c,%eax
     7b9:	06                   	(bad)  
     7ba:	01 05 2c 06 4a 06    	add    %eax,0x64a062c(%rip)        # 64a0dec <_end+0x649bd94>
     7c0:	74 05                	je     7c7 <__abi_tag+0x4df>
     7c2:	0a 03                	or     (%rbx),%al
     7c4:	71 01                	jno    7c7 <__abi_tag+0x4df>
     7c6:	05 1b 08 cb 2e       	add    $0x2ecb081b,%eax
     7cb:	05 0a 0f 05 01       	add    $0x1050f0a,%eax
     7d0:	06                   	(bad)  
     7d1:	03 18                	add    (%rax),%ebx
     7d3:	08 e4                	or     %ah,%ah
     7d5:	05 03 13 13 05       	add    $0x5131303,%eax
     7da:	16                   	(bad)  
     7db:	06                   	(bad)  
     7dc:	01 05 01 3a 05 16    	add    %eax,0x16053a01(%rip)        # 160541e3 <_end+0x1604f18b>
     7e2:	3e 05 03 06 4c 05    	ds add $0x54c0603,%eax
     7e8:	08 01                	or     %al,(%rcx)
     7ea:	05 22 01 05 03       	add    $0x3050122,%eax
     7ef:	06                   	(bad)  
     7f0:	01 05 0a 02 25 0f    	add    %eax,0xf25020a(%rip)        # f250a00 <_end+0xf24b9a8>
     7f6:	ac                   	lods   %ds:(%rsi),%al
     7f7:	05 07 00 02 04       	add    $0x4020007,%eax
     7fc:	03 06                	add    (%rsi),%eax
     7fe:	02 46 17             	add    0x17(%rsi),%al
     801:	05 10 00 02 04       	add    $0x4020010,%eax
     806:	03 06                	add    (%rsi),%eax
     808:	01 05 17 00 02 04    	add    %eax,0x4020017(%rip)        # 4020825 <_end+0x401b7cd>
     80e:	03 02                	add    (%rdx),%eax
     810:	76 12                	jbe    824 <__abi_tag+0x53c>
     812:	05 10 00 02 04       	add    $0x4020010,%eax
     817:	03 ba 05 17 00 02    	add    0x2001705(%rdx),%edi
     81d:	04 03                	add    $0x3,%al
     81f:	ba 05 10 00 02       	mov    $0x2001005,%edx
     824:	04 03                	add    $0x3,%al
     826:	66 05 17 00          	add    $0x17,%ax
     82a:	02 04 03             	add    (%rbx,%rax,1),%al
     82d:	ba 05 10 00 02       	mov    $0x2001005,%edx
     832:	04 03                	add    $0x3,%al
     834:	02 28                	add    (%rax),%ch
     836:	12 05 17 00 02 04    	adc    0x4020017(%rip),%al        # 4020853 <_end+0x401b7fb>
     83c:	03 58 05             	add    0x5(%rax),%ebx
     83f:	10 00                	adc    %al,(%rax)
     841:	02 04 03             	add    (%rbx,%rax,1),%al
     844:	ba 05 17 00 02       	mov    $0x2001705,%edx
     849:	04 03                	add    $0x3,%al
     84b:	58                   	pop    %rax
     84c:	05 10 00 02 04       	add    $0x4020010,%eax
     851:	03 02                	add    (%rdx),%eax
     853:	62 12 05 17 00 02    	vpshufb (%r10){1to4},%xmm31,%xmm8{%k7}
     859:	04 03                	add    $0x3,%al
     85b:	58                   	pop    %rax
     85c:	05 10 00 02 04       	add    $0x4020010,%eax
     861:	03 58 05             	add    0x5(%rax),%ebx
     864:	14 00                	adc    $0x0,%al
     866:	02 04 03             	add    (%rbx,%rax,1),%al
     869:	74 05                	je     870 <__abi_tag+0x588>
     86b:	10 00                	adc    %al,(%rax)
     86d:	02 04 03             	add    (%rbx,%rax,1),%al
     870:	58                   	pop    %rax
     871:	05 0c 00 02 04       	add    $0x402000c,%eax
     876:	03 ba 00 02 04 03    	add    0x3040200(%rdx),%edi
     87c:	58                   	pop    %rax
     87d:	05 07 00 02 04       	add    $0x4020007,%eax
     882:	03 06                	add    (%rsi),%eax
     884:	91                   	xchg   %eax,%ecx
     885:	05 17 00 02 04       	add    $0x4020017,%eax
     88a:	03 06                	add    (%rsi),%eax
     88c:	11 05 18 00 02 04    	adc    %eax,0x4020018(%rip)        # 40208aa <_end+0x401b852>
     892:	03 ad 05 0c 00 02    	add    0x2000c05(%rbp),%ebp
     898:	04 03                	add    $0x3,%al
     89a:	58                   	pop    %rax
     89b:	05 17 00 02 04       	add    $0x4020017,%eax
     8a0:	03 08                	add    (%rax),%ecx
     8a2:	49 05 0c 00 02 04    	rex.WB add $0x402000c,%rax
     8a8:	03 e5                	add    %ebp,%esp
     8aa:	05 07 00 02 04       	add    $0x4020007,%eax
     8af:	03 06                	add    (%rsi),%eax
     8b1:	75 05                	jne    8b8 <__abi_tag+0x5d0>
     8b3:	10 00                	adc    %al,(%rax)
     8b5:	02 04 03             	add    (%rbx,%rax,1),%al
     8b8:	06                   	(bad)  
     8b9:	10 00                	adc    %al,(%rax)
     8bb:	02 04 03             	add    (%rbx,%rax,1),%al
     8be:	58                   	pop    %rax
     8bf:	05 18 00 02 04       	add    $0x4020018,%eax
     8c4:	03 5e 05             	add    0x5(%rsi),%ebx
     8c7:	10 00                	adc    %al,(%rax)
     8c9:	02 04 03             	add    (%rbx,%rax,1),%al
     8cc:	03 7a 58             	add    0x58(%rdx),%edi
     8cf:	05 0c 00 02 04       	add    $0x402000c,%eax
     8d4:	03 5e 00             	add    0x0(%rsi),%ebx
     8d7:	02 04 03             	add    (%rbx,%rax,1),%al
     8da:	67 05 18 00 02 04    	addr32 add $0x4020018,%eax
     8e0:	03 6f 05             	add    0x5(%rdi),%ebp
     8e3:	0c 00                	or     $0x0,%al
     8e5:	02 04 03             	add    (%rbx,%rax,1),%al
     8e8:	58                   	pop    %rax
     8e9:	00 02                	add    %al,(%rdx)
     8eb:	04 03                	add    $0x3,%al
     8ed:	78 00                	js     8ef <__abi_tag+0x607>
     8ef:	02 04 03             	add    (%rbx,%rax,1),%al
     8f2:	9a                   	(bad)  
     8f3:	00 02                	add    %al,(%rdx)
     8f5:	04 03                	add    $0x3,%al
     8f7:	94                   	xchg   %eax,%esp
     8f8:	00 02                	add    %al,(%rdx)
     8fa:	04 03                	add    $0x3,%al
     8fc:	54                   	push   %rsp
     8fd:	05 17 00 02 04       	add    $0x4020017,%eax
     902:	03 56 05             	add    0x5(%rsi),%edx
     905:	0c 00                	or     $0x0,%al
     907:	02 04 03             	add    (%rbx,%rax,1),%al
     90a:	c0 00 02             	rolb   $0x2,(%rax)
     90d:	04 03                	add    $0x3,%al
     90f:	62                   	(bad)  
     910:	05 07 00 02 04       	add    $0x4020007,%eax
     915:	03 06                	add    (%rsi),%eax
     917:	75 05                	jne    91e <__abi_tag+0x636>
     919:	10 00                	adc    %al,(%rax)
     91b:	02 04 03             	add    (%rbx,%rax,1),%al
     91e:	06                   	(bad)  
     91f:	0f 00 02             	sldt   (%rdx)
     922:	04 03                	add    $0x3,%al
     924:	58                   	pop    %rax
     925:	05 18 00 02 04       	add    $0x4020018,%eax
     92a:	03 51 05             	add    0x5(%rcx),%edx
     92d:	10 00                	adc    %al,(%rax)
     92f:	02 04 03             	add    (%rbx,%rax,1),%al
     932:	03 79 4a             	add    0x4a(%rcx),%edi
     935:	05 18 00 02 04       	add    $0x4020018,%eax
     93a:	03 5b 05             	add    0x5(%rbx),%ebx
     93d:	0c 00                	or     $0x0,%al
     93f:	02 04 03             	add    (%rbx,%rax,1),%al
     942:	58                   	pop    %rax
     943:	00 02                	add    %al,(%rdx)
     945:	04 03                	add    $0x3,%al
     947:	78 00                	js     949 <__abi_tag+0x661>
     949:	02 04 03             	add    (%rbx,%rax,1),%al
     94c:	8c 00                	mov    %es,(%rax)
     94e:	02 04 03             	add    (%rbx,%rax,1),%al
     951:	94                   	xchg   %eax,%esp
     952:	00 02                	add    %al,(%rdx)
     954:	04 03                	add    $0x3,%al
     956:	54                   	push   %rsp
     957:	05 10 00 02 04       	add    $0x4020010,%eax
     95c:	03 55 05             	add    0x5(%rbp),%edx
     95f:	0c 00                	or     $0x0,%al
     961:	02 04 03             	add    (%rbx,%rax,1),%al
     964:	b0 00                	mov    $0x0,%al
     966:	02 04 03             	add    (%rbx,%rax,1),%al
     969:	69 05 18 00 02 04 03 	imul   $0xc057103,0x4020018(%rip),%eax        # 402098b <_end+0x401b933>
     970:	71 05 0c 
     973:	00 02                	add    %al,(%rdx)
     975:	04 03                	add    $0x3,%al
     977:	57                   	push   %rdi
     978:	05 07 00 02 04       	add    $0x4020007,%eax
     97d:	03 06                	add    (%rsi),%eax
     97f:	75 05                	jne    986 <__abi_tag+0x69e>
     981:	10 00                	adc    %al,(%rax)
     983:	02 04 03             	add    (%rbx,%rax,1),%al
     986:	06                   	(bad)  
     987:	0e                   	(bad)  
     988:	05 17 00 02 04       	add    $0x4020017,%eax
     98d:	03 66 05             	add    0x5(%rsi),%esp
     990:	10 00                	adc    %al,(%rax)
     992:	02 04 03             	add    (%rbx,%rax,1),%al
     995:	74 05                	je     99c <__abi_tag+0x6b4>
     997:	17                   	(bad)  
     998:	00 02                	add    %al,(%rdx)
     99a:	04 03                	add    $0x3,%al
     99c:	4a 05 0c 00 02 04    	rex.WX add $0x402000c,%rax
     9a2:	03 5d 05             	add    0x5(%rbp),%ebx
     9a5:	18 00                	sbb    %al,(%rax)
     9a7:	02 04 03             	add    (%rbx,%rax,1),%al
     9aa:	66 05 0c 00          	add    $0xc,%ax
     9ae:	02 04 03             	add    (%rbx,%rax,1),%al
     9b1:	57                   	push   %rdi
     9b2:	00 02                	add    %al,(%rdx)
     9b4:	04 03                	add    $0x3,%al
     9b6:	9f                   	lahf   
     9b7:	00 02                	add    %al,(%rdx)
     9b9:	04 03                	add    $0x3,%al
     9bb:	81 00 02 04 03 59    	addl   $0x59030402,(%rax)
     9c1:	00 02                	add    %al,(%rdx)
     9c3:	04 03                	add    $0x3,%al
     9c5:	49 05 07 00 02 04    	rex.WB add $0x4020007,%rax
     9cb:	03 06                	add    (%rsi),%eax
     9cd:	67 05 0c 00 02 04    	addr32 add $0x402000c,%eax
     9d3:	03 06                	add    (%rsi),%eax
     9d5:	01 05 07 00 02 04    	add    %eax,0x4020007(%rip)        # 40209e2 <_end+0x401b98a>
     9db:	03 06                	add    (%rsi),%eax
     9dd:	67 00 02             	add    %al,(%edx)
     9e0:	04 03                	add    $0x3,%al
     9e2:	13 05 29 00 02 04    	adc    0x4020029(%rip),%eax        # 4020a11 <_end+0x401b9b9>
     9e8:	03 03                	add    (%rbx),%eax
     9ea:	77 01                	ja     9ed <__abi_tag+0x705>
     9ec:	05 22 00 02 04       	add    $0x4020022,%eax
     9f1:	03 01                	add    (%rcx),%eax
     9f3:	05 07 08 f4 05       	add    $0x5f40807,%eax
     9f8:	14 06                	adc    $0x6,%al
     9fa:	01 05 10 9e 05 0c    	add    %eax,0xc059e10(%rip)        # c05a810 <_end+0xc0557b8>
     a00:	82                   	(bad)  
     a01:	05 07 06 59 05       	add    $0x5590607,%eax
     a06:	18 06                	sbb    %al,(%rsi)
     a08:	01 05 0c ba 05 07    	add    %eax,0x705ba0c(%rip)        # 705c41a <_end+0x70573c2>
     a0e:	06                   	(bad)  
     a0f:	bb 05 18 06 01       	mov    $0x1061805,%ebx
     a14:	66 05 0c 66          	add    $0x660c,%ax
     a18:	05 07 06 bb 05       	add    $0x5bb0607,%eax
     a1d:	18 06                	sbb    %al,(%rsi)
     a1f:	01 66 05             	add    %esp,0x5(%rsi)
     a22:	0c 66                	or     $0x66,%al
     a24:	05 07 06 bb 05       	add    $0x5bb0607,%eax
     a29:	18 06                	sbb    %al,(%rsi)
     a2b:	01 66 05             	add    %esp,0x5(%rsi)
     a2e:	0c 66                	or     $0x66,%al
     a30:	05 07 06 bb 05       	add    $0x5bb0607,%eax
     a35:	18 06                	sbb    %al,(%rsi)
     a37:	01 05 0c ba 05 07    	add    %eax,0x705ba0c(%rip)        # 705c449 <_end+0x70573f1>
     a3d:	06                   	(bad)  
     a3e:	bb 05 18 06 01       	mov    $0x1061805,%ebx
     a43:	05 0c ba 05 07       	add    $0x705ba0c,%eax
     a48:	06                   	(bad)  
     a49:	bb 05 18 06 01       	mov    $0x1061805,%ebx
     a4e:	05 0c ba 05 29       	add    $0x2905ba0c,%eax
     a53:	06                   	(bad)  
     a54:	03 77 58             	add    0x58(%rdi),%esi
     a57:	05 22 01 05 03       	add    $0x3050122,%eax
     a5c:	03 0c 01             	add    (%rcx,%rax,1),%ecx
     a5f:	05 06 06 01 05       	add    $0x5010606,%eax
     a64:	03 06                	add    (%rsi),%eax
     a66:	60                   	(bad)  
     a67:	05 0f 06 01 05       	add    $0x501060f,%eax
     a6c:	16                   	(bad)  
     a6d:	66 05 0f 66          	add    $0x660f,%ax
     a71:	05 16 58 05 1d       	add    $0x1d055816,%eax
     a76:	4a 05 24 66 05 2b    	rex.WX add $0x2b056624,%rax
     a7c:	66 05 32 66          	add    $0x6632,%ax
     a80:	05 39 66 05 01       	add    $0x1056639,%eax
     a85:	59                   	pop    %rcx
     a86:	05 07 06 03 79       	add    $0x79030607,%eax
     a8b:	4a 14 05             	rex.WX adc $0x5,%al
     a8e:	0c 01                	or     $0x1,%al
     a90:	05 1f 06 4a 05       	add    $0x54a061f,%eax
     a95:	2c 06                	sub    $0x6,%al
     a97:	3c 05                	cmp    $0x5,%al
     a99:	07                   	(bad)  
     a9a:	06                   	(bad)  
     a9b:	01 2e                	add    %ebp,(%rsi)
     a9d:	4a 05 04 06 83 05    	rex.WX add $0x5830604,%rax
     aa3:	11 06                	adc    %eax,(%rsi)
     aa5:	01 05 14 d6 05 11    	add    %eax,0x1105d614(%rip)        # 1105e0bf <_end+0x11059067>
     aab:	58                   	pop    %rax
     aac:	05 09 9e 05 33       	add    $0x33059e09,%eax
     ab1:	06                   	(bad)  
     ab2:	e3 05                	jrcxz  ab9 <__abi_tag+0x7d1>
     ab4:	2c 01                	sub    $0x1,%al
     ab6:	05 04 13 05 11       	add    $0x11051304,%eax
     abb:	06                   	(bad)  
     abc:	01 05 09 ac 58 05    	add    %eax,0x558ac09(%rip)        # 558b6cb <_end+0x5586673>
     ac2:	33 06                	xor    (%rsi),%eax
     ac4:	9d                   	popfq  
     ac5:	05 2c 01 05 04       	add    $0x405012c,%eax
     aca:	13 05 0d 06 01 05    	adc    0x501060d(%rip),%eax        # 50110dd <_end+0x500c085>
     ad0:	11 66 05             	adc    %esp,0x5(%rsi)
     ad3:	33 06                	xor    (%rsi),%eax
     ad5:	57                   	push   %rdi
     ad6:	05 2c 01 05 04       	add    $0x405012c,%eax
     adb:	13 05 11 06 01 05    	adc    0x5010611(%rip),%eax        # 50110f2 <_end+0x500c09a>
     ae1:	09 d6                	or     %edx,%esi
     ae3:	4a 05 33 06 08 1f    	rex.WX add $0x1f080633,%rax
     ae9:	05 2c 01 06 d6       	add    $0xd606012c,%eax
     aee:	05 03 06 0e 05       	add    $0x50e0603,%eax
     af3:	06                   	(bad)  
     af4:	06                   	(bad)  
     af5:	01 05 07 06 92 14    	add    %eax,0x14920607(%rip)        # 14921102 <_end+0x1491c0aa>
     afb:	05 0c 01 05 1f       	add    $0x1f05010c,%eax
     b00:	06                   	(bad)  
     b01:	01 05 2c 06 4a 06    	add    %eax,0x64a062c(%rip)        # 64a1133 <_end+0x649c0db>
     b07:	ac                   	lods   %ds:(%rsi),%al
     b08:	05 0a 03 6d 01       	add    $0x16d030a,%eax
     b0d:	05 1b 02 3e 15       	add    $0x153e021b,%eax
     b12:	2e 05 0a 0f 05 01    	cs add $0x1050f0a,%eax
     b18:	06                   	(bad)  
     b19:	03 1c 02             	add    (%rdx,%rax,1),%ebx
     b1c:	38 01                	cmp    %al,(%rcx)
     b1e:	05 03 13 13 05       	add    $0x5131303,%eax
     b23:	16                   	(bad)  
     b24:	06                   	(bad)  
     b25:	01 05 01 3a 05 16    	add    %eax,0x16053a01(%rip)        # 1605452c <_end+0x1604f4d4>
     b2b:	76 05                	jbe    b32 <__abi_tag+0x84a>
     b2d:	03 06                	add    (%rsi),%eax
     b2f:	4c 05 08 01 05 22    	rex.WR add $0x22050108,%rax
     b35:	01 05 03 06 01 05    	add    %eax,0x5010603(%rip)        # 501113e <_end+0x500c0e6>
     b3b:	0a 02                	or     (%rdx),%al
     b3d:	28 0f                	sub    %cl,(%rdi)
     b3f:	9e                   	sahf   
     b40:	05 07 00 02 04       	add    $0x4020007,%eax
     b45:	03 06                	add    (%rsi),%eax
     b47:	02 70 17             	add    0x17(%rax),%dh
     b4a:	05 10 00 02 04       	add    $0x4020010,%eax
     b4f:	03 06                	add    (%rsi),%eax
     b51:	01 05 17 00 02 04    	add    %eax,0x4020017(%rip)        # 4020b6e <_end+0x401bb16>
     b57:	03 02                	add    (%rdx),%eax
     b59:	b5 04                	mov    $0x4,%ch
     b5b:	12 05 10 00 02 04    	adc    0x4020010(%rip),%al        # 4020b71 <_end+0x401bb19>
     b61:	03 82 05 17 00 02    	add    0x2001705(%rdx),%eax
     b67:	04 03                	add    $0x3,%al
     b69:	90                   	nop
     b6a:	05 10 00 02 04       	add    $0x4020010,%eax
     b6f:	03 82 05 17 00 02    	add    0x2001705(%rdx),%eax
     b75:	04 03                	add    $0x3,%al
     b77:	58                   	pop    %rax
     b78:	05 10 00 02 04       	add    $0x4020010,%eax
     b7d:	03 c8                	add    %eax,%ecx
     b7f:	05 17 00 02 04       	add    $0x4020017,%eax
     b84:	03 58 05             	add    0x5(%rax),%ebx
     b87:	10 00                	adc    %al,(%rax)
     b89:	02 04 03             	add    (%rbx,%rax,1),%al
     b8c:	82                   	(bad)  
     b8d:	05 17 00 02 04       	add    $0x4020017,%eax
     b92:	03 90 05 10 00 02    	add    0x2001005(%rax),%edx
     b98:	04 03                	add    $0x3,%al
     b9a:	c8 05 17 00          	enterq $0x1705,$0x0
     b9e:	02 04 03             	add    (%rbx,%rax,1),%al
     ba1:	90                   	nop
     ba2:	05 10 00 02 04       	add    $0x4020010,%eax
     ba7:	03 02                	add    (%rdx),%eax
     ba9:	f0 03 12             	lock add (%rdx),%edx
     bac:	05 17 00 02 04       	add    $0x4020017,%eax
     bb1:	03 90 05 10 00 02    	add    0x2001005(%rax),%edx
     bb7:	04 03                	add    $0x3,%al
     bb9:	9e                   	sahf   
     bba:	05 14 00 02 04       	add    $0x4020014,%eax
     bbf:	03 90 05 0c 00 02    	add    0x2000c05(%rax),%edx
     bc5:	04 03                	add    $0x3,%al
     bc7:	4a 05 17 00 02 04    	rex.WX add $0x4020017,%rax
     bcd:	03 08                	add    (%rax),%ecx
     bcf:	20 05 0c 00 02 04    	and    %al,0x402000c(%rip)        # 4020be1 <_end+0x401bb89>
     bd5:	03 e4                	add    %esp,%esp
     bd7:	05 07 00 02 04       	add    $0x4020007,%eax
     bdc:	03 06                	add    (%rsi),%eax
     bde:	67 05 10 00 02 04    	addr32 add $0x4020010,%eax
     be4:	03 06                	add    (%rsi),%eax
     be6:	11 00                	adc    %eax,(%rax)
     be8:	02 04 03             	add    (%rbx,%rax,1),%al
     beb:	90                   	nop
     bec:	05 18 00 02 04       	add    $0x4020018,%eax
     bf1:	03 91 05 0c 00 02    	add    0x2000c05(%rcx),%edx
     bf7:	04 03                	add    $0x3,%al
     bf9:	4a 05 17 00 02 04    	rex.WX add $0x4020017,%rax
     bff:	03 08                	add    (%rax),%ecx
     c01:	1f                   	(bad)  
     c02:	05 0c 00 02 04       	add    $0x402000c,%eax
     c07:	03 d7                	add    %edi,%edx
     c09:	05 07 00 02 04       	add    $0x4020007,%eax
     c0e:	03 06                	add    (%rsi),%eax
